(lp0
(lp1
Vaba
p2
aVabba
p3
aa(lp4
Vabsolut
p5
aVabsolute
p6
aa(lp7
Vadige
p8
aVadigo
p9
aa(lp10
Vadraki
p11
aVadrki
p12
aVadhraki
p13
aVadaraki
p14
aa(lp15
Vadventure
p16
aVadvanture
p17
aa(lp18
Vafrica
p19
aVafrican
p20
aa(lp21
Vagedashi
p22
aVdashi
p23
aVdashitofu
p24
aa(lp25
Vaglio
p26
aVolio
p27
aValio
p28
aVoilo
p29
aVoglio
p30
aVagilo
p31
aVagi
p32
aVagile
p33
aVlio
p34
aVaglo
p35
aVoilio
p36
aa(lp37
Vahumado
p38
aVahummado
p39
aa(lp40
Vajin
p41
aVbajin
p42
aa(lp43
Val
p44
aVsalvia
p45
aa(lp46
Valbarino
p47
aValbario
p48
aValbarina
p49
aa(lp50
Valbondigas
p51
aValbndigas
p52
aa(lp53
Valcohol
p54
aValcoholic
p55
aa(lp56
Vale
p57
aVpale
p58
aa(lp59
Valigote
p60
aValigot
p61
aa(lp62
Vallepy
p63
aVallepey
p64
aa(lp65
Valmerita
p66
aValmertita
p67
aa(lp68
Valska
p69
aVlska
p70
aa(lp71
Vamarone
p72
aVamorone
p73
aa(lp74
Vamatriciana
p75
aVmatriciana
p76
aVamatrician
p77
aa(lp78
Vande
p79
aVanderson
p80
aa(lp81
Vang
p82
aVkachang
p83
aVpng
p84
aVbangket
p85
aVbangkit
p86
aa(lp87
Vangelica
p88
aVangelic
p89
aa(lp90
Vapi
p91
aVati
p92
aVhati
p93
aa(lp94
Varaye
p95
aVarayess
p96
aVarraye
p97
aa(lp98
Varrabbiata
p99
aVarrabiata
p100
aVarriabiata
p101
aa(lp102
Varrabiatta
p103
aVarabiatta
p104
aa(lp105
Vartic
p106
aVarctic
p107
aa(lp108
Varugula
p109
aVarugulo
p110
aa(lp111
Varunachal
p112
aVarunachala
p113
aa(lp114
Vassam
p115
aVasam
p116
aVasem
p117
aa(lp118
Vasti
p119
aVdasti
p120
aVdsti
p121
aVdti
p122
aa(lp123
Vatlantic
p124
aValantic
p125
aa(lp126
Vatsu
p127
aVatsuage
p128
aVtatsuta
p129
aa(lp130
Vatta
p131
aVrattani
p132
aa(lp133
Vattap
p134
aVatap
p135
aa(lp136
Vaugus
p137
aVanugus
p138
aa(lp139
Vavec
p140
aVave
p141
aa(lp142
Vavola
p143
aVdavola
p144
aVdavila
p145
aa(lp146
Vbaccal
p147
aVbaccala
p148
aa(lp149
Vback
p150
aVbackrib
p151
aVbackribs
p152
aa(lp153
Vbai
p154
aVnai
p155
aa(lp156
Vbaingan
p157
aVbaigan
p158
aVbangan
p159
aVbhaigan
p160
aVbaigain
p161
aa(lp162
Vbajji
p163
aVbhajji
p164
aa(lp165
Vbake
p166
aVbaked
p167
aa(lp168
Vbakwan
p169
aVbakwang
p170
aa(lp171
Vbal
p172
aVgal
p173
aVdakbal
p174
aa(lp175
Vbaldi
p176
aVbayildi
p177
aVbaildi
p178
aa(lp179
Vballoon
p180
aVballonn
p181
aa(lp182
Vbam
p183
aVfam
p184
aa(lp185
Vbananutella
p186
aVbananautella
p187
aa(lp188
Vbanarasi
p189
aVbenarasi
p190
aa(lp191
Vbandung
p192
aVbandong
p193
aa(lp194
Vbap
p195
aVbab
p196
aa(lp197
Vbara
p198
aVhara
p199
aVbhara
p200
aVharasu
p201
aVharabhara
p202
aVharasume
p203
aVbharaa
p204
aa(lp205
Vbarcardi
p206
aVbarcadi
p207
aa(lp208
Vbarfi
p209
aVburfi
p210
aa(lp211
Vbaro
p212
aVbarota
p213
aa(lp214
Vbasmati
p215
aVbasmatic
p216
aa(lp217
Vbatang
p218
aVbatong
p219
aa(lp220
Vbatata
p221
aVbata
p222
aa(lp223
Vbeancurd
p224
aVcurd
p225
aVcurb
p226
aa(lp227
Vbearnaise
p228
aVbernaise
p229
aa(lp230
Vbeat
p231
aVbeaten
p232
aa(lp233
Vbeaunoy
p234
aVbeanunoy
p235
aa(lp236
Vbegam
p237
aVbegami
p238
aa(lp239
Vbeij
p240
aVbeijing
p241
aa(lp242
Vbelacan
p243
aVbelachan
p244
aVblachan
p245
aVbalachan
p246
aVbalacan
p247
aa(lp248
Vbelado
p249
aVbalado
p250
aa(lp251
Vbernadus
p252
aVbernardus
p253
aa(lp254
Vbhaji
p255
aVbhaaji
p256
aVbhajia
p257
aVbhajiyas
p258
aVbhajis
p259
aVbhajiya
p260
aa(lp261
Vbhalla
p262
aVballa
p263
aa(lp264
Vbharta
p265
aVbhartha
p266
aVbartha
p267
aVburtha
p268
aVbhartah
p269
aVbhrta
p270
aa(lp271
Vbharwan
p272
aVbharwa
p273
aa(lp274
Vbhatura
p275
aVbatura
p276
aVbattura
p277
aVbhature
p278
aVbhattura
p279
aa(lp280
Vbhindi
p281
aVbhandi
p282
aVbhendi
p283
aa(lp284
Vbhoona
p285
aVboona
p286
aa(lp287
Vbhujia
p288
aVbhugia
p289
aa(lp290
Vbhurji
p291
aVburji
p292
aVbhuriji
p293
aVbhurjiya
p294
aa(lp295
Vbi
p296
aVbibim
p297
aVbim
p298
aVhebi
p299
aa(lp300
Vbian
p301
aVqian
p302
aa(lp303
Vbicergourd
p304
aVbitergourd
p305
aa(lp306
Vbili
p307
aVikambili
p308
aVikanbili
p309
aa(lp310
Vbillis
p311
aVbill
p312
aVbilli
p313
aa(lp314
Vbindi
p315
aVbindy
p316
aa(lp317
Vbiryani
p318
aVberyani
p319
aa(lp320
Vbitter
p321
aVitter
p322
aa(lp323
Vbitterground
p324
aVbittergroud
p325
aa(lp326
Vblooi
p327
aVlooi
p328
aa(lp329
Vblt
p330
aVbat
p331
aa(lp332
Vbn
p333
aVsn
p334
aa(lp335
Vbnh
p336
aVbng
p337
aVhnh
p338
aa(lp339
Vbolly
p340
aVwooly
p341
aVwolly
p342
aa(lp343
Vbom
p344
aVbomp
p345
aa(lp346
Vbooki
p347
aVbokki
p348
aa(lp349
Vboondi
p350
aVboondhi
p351
aa(lp352
Vborgogno
p353
aVbargogno
p354
aa(lp355
Vbosco
p356
aVbosc
p357
aa(lp358
Vboshi
p359
aVbushi
p360
aa(lp361
Vbourbon
p362
aVurbon
p363
aa(lp364
Vbourguignon
p365
aVbourguigon
p366
aVbourguignonne
p367
aa(lp368
Vbp
p369
aVbd
p370
aVbc
p371
aa(lp372
Vbratwurst
p373
aVbratswurst
p374
aa(lp375
Vbrawnz
p376
aVbrawn
p377
aa(lp378
Vbreadcrumb
p379
aVbreadcrumbed
p380
aa(lp381
Vbream
p382
aVseabream
p383
aa(lp384
Vbrekkie
p385
aVbrek
p386
aa(lp387
Vbrian
p388
aVbrion
p389
aa(lp390
Vbriyani
p391
aVbiriyani
p392
aa(lp393
Vbrunello
p394
aVbrunelo
p395
aa(lp396
Vbu
p397
aVbullak
p398
aVbulnak
p399
aa(lp400
Vbuah
p401
aVbuahan
p402
aa(lp403
Vbuco
p404
aVbucco
p405
aa(lp406
Vbud
p407
aVbudsand
p408
aa(lp409
Vbudae
p410
aVbudoe
p411
aa(lp412
Vbuddha
p413
aVbudha
p414
aa(lp415
Vbufala
p416
aVbufola
p417
aa(lp418
Vbuff
p419
aVbuffaloa
p420
aa(lp421
Vbulgogi
p422
aVbulgolgi
p423
aa(lp424
Vbumbu
p425
aVbambu
p426
aa(lp427
Vburani
p428
aVbhurani
p429
aa(lp430
Vbutterfly
p431
aVbuttefly
p432
aa(lp433
Vcabonara
p434
aVbonara
p435
aa(lp436
Vcaesar
p437
aVceasar
p438
aVcaeser
p439
aVcesar
p440
aVceaser
p441
aa(lp442
Vcahor
p443
aVcohor
p444
aa(lp445
Vcaipo
p446
aVcaipoh
p447
aVcaipu
p448
aa(lp449
Vcalabrese
p450
aVcalebrese
p451
aa(lp452
Vcampur
p453
aVchampur
p454
aa(lp455
Vcanap
p456
aVcanape
p457
aa(lp458
Vcanard
p459
aVcarnard
p460
aa(lp461
Vcao
p462
aVzao
p463
aa(lp464
Vcapesante
p465
aVcappesante
p466
aa(lp467
Vcapi
p468
aVcapt
p469
aa(lp470
Vcappricciosa
p471
aVcarpricciosa
p472
aa(lp473
Vcappuccino
p474
aVcappucino
p475
aa(lp476
Vcarabnero
p477
aVcarabinero
p478
aa(lp479
Vcarnivore
p480
aVcarnivorre
p481
aa(lp482
Vcarpaccio
p483
aVcapaccio
p484
aa(lp485
Vcarrozza
p486
aVcarozza
p487
aa(lp488
Vcasa
p489
aVcata
p490
aa(lp491
Vcasareccio
p492
aVcasereccio
p493
aa(lp494
Vcasserole
p495
aVcasseroole
p496
aa(lp497
Vcastatine
p498
aVcostatine
p499
aa(lp500
Vcastilla
p501
aVcastillo
p502
aVcastila
p503
aVcastela
p504
aa(lp505
Vcaypot
p506
aVcraypot
p507
aa(lp508
Vcedar
p509
aVcedal
p510
aa(lp511
Vcesare
p512
aVcaesare
p513
aa(lp514
Vchaat
p515
aVchat
p516
aVchatt
p517
aa(lp518
Vchablisienne
p519
aVchablisinne
p520
aa(lp521
Vcham
p522
aVchamchi
p523
aa(lp524
Vchamomile
p525
aVcamomile
p526
aa(lp527
Vchampione
p528
aVpione
p529
aVchampinone
p530
aa(lp531
Vchana
p532
aVchanna
p533
aVchann
p534
aVchaana
p535
aVchanma
p536
aa(lp537
Vchapa
p538
aVchapu
p539
aa(lp540
Vchapati
p541
aVchapathi
p542
aVchappathi
p543
aVchappati
p544
aVchapatti
p545
aa(lp546
Vcharcuterie
p547
aVcharcuteris
p548
aa(lp549
Vchateau
p550
aVchteau
p551
aa(lp552
Vchatpata
p553
aVchapata
p554
aa(lp555
Vchee
p556
aVchwee
p557
aa(lp558
Vchem
p559
aVchep
p560
aVchepala
p561
aa(lp562
Vchemeen
p563
aVcheemeen
p564
aa(lp565
Vcheo
p566
aVchio
p567
aa(lp568
Vchettinad
p569
aVchettinadu
p570
aVchettinadul
p571
aa(lp572
Vchevre
p573
aVchvre
p574
aa(lp575
Vchew
p576
aVcheow
p577
aVchoew
p578
aa(lp579
Vchigae
p580
aVchigay
p581
aVchegay
p582
aa(lp583
Vchilean
p584
aVchelean
p585
aa(lp586
Vchilli
p587
aVchili
p588
aa(lp589
Vchippy
p590
aVchirpy
p591
aa(lp592
Vchirashi
p593
aVshirashi
p594
aVchirashidon
p595
aa(lp596
Vchoc
p597
aVchocoate
p598
aa(lp599
Vchocolate
p600
aVchoco
p601
aa(lp602
Vchole
p603
aVcholey
p604
aVchholey
p605
aa(lp606
Vchopsey
p607
aVchopseuy
p608
aa(lp609
Vchownki
p610
aVcgonnki
p611
aVchonnki
p612
aa(lp613
Vchrysantheum
p614
aVchrysantemum
p615
aVchrysanthmum
p616
aa(lp617
Vchu
p618
aVchur
p619
aa(lp620
Vchuleta
p621
aVchuletas
p622
aa(lp623
Vchuletn
p624
aVchuleton
p625
aa(lp626
Vchulop
p627
aVchullop
p628
aa(lp629
Vcinsault
p630
aVcinsoult
p631
aa(lp632
Vcipolla
p633
aVcipolle
p634
aVcipole
p635
aa(lp636
Vclair
p637
aVsinclair
p638
aa(lp639
Vclaw
p640
aVclaws
p641
aa(lp642
Vclaypot
p643
aVclay
p644
aa(lp645
Vclippper
p646
aVclipper
p647
aa(lp648
Vcola
p649
aVcoca
p650
aa(lp651
Vcoleslaw
p652
aVcolesaw
p653
aa(lp654
Vcolle
p655
aVtollo
p656
aVtolle
p657
aa(lp658
Vconsomme
p659
aVconsamme
p660
aVconsomms
p661
aa(lp662
Vcordon
p663
aVcorden
p664
aa(lp665
Vcordycep
p666
aVcordcep
p667
aa(lp668
Vcostolette
p669
aVcostoletta
p670
aa(lp671
Vcotelette
p672
aVcotolette
p673
aa(lp674
Vcous
p675
aVcouscous
p676
aa(lp677
Vcr
p678
aVcor
p679
aa(lp680
Vcrema
p681
aVcreama
p682
aa(lp683
Vcress
p684
aVcrest
p685
aa(lp686
Vcriss
p687
aVcross
p688
aVcris
p689
aVcrisscut
p690
aa(lp691
Vcrme
p692
aVcreme
p693
aa(lp694
Vcroduette
p695
aVcropuette
p696
aa(lp697
Vcroix
p698
aVcroixe
p699
aa(lp700
Vcroque
p701
aVcroique
p702
aVcroquet
p703
aVcrouque
p704
aa(lp705
Vcuric
p706
aVcurico
p707
aa(lp708
Vcuttefish
p709
aVcutlefish
p710
aa(lp711
Vcuttlefish
p712
aVcuttle
p713
aa(lp714
Vdagging
p715
aVdagg
p716
aa(lp717
Vdaging
p718
aVdag
p719
aa(lp720
Vdahi
p721
aVdahl
p722
aVdhahi
p723
aa(lp724
Vdal
p725
aVdaal
p726
aVdala
p727
aa(lp728
Vdead
p729
aVdeadguy
p730
aa(lp731
Vdeow
p732
aVdeaw
p733
aa(lp734
Vdeschut
p735
aVdeschute
p736
aa(lp737
Vdhal
p738
aVdhai
p739
aa(lp740
Vdhaniya
p741
aVdhaniye
p742
aVdaniya
p743
aa(lp744
Vdie
p745
aVdine
p746
aa(lp747
Vdieh
p748
aVdieu
p749
aa(lp750
Vdim
p751
aVdimsum
p752
aa(lp753
Vdingri
p754
aVdhingri
p755
aVdinghri
p756
aa(lp757
Vdoc
p758
aVdop
p759
aa(lp760
Vdoenjang
p761
aVdwenjang
p762
aVdoenajang
p763
aa(lp764
Vdolma
p765
aVdolmasi
p766
aa(lp767
Vdongtae
p768
aVdongte
p769
aa(lp770
Vdoo
p771
aVdooby
p772
aa(lp773
Vdragonfruit
p774
aVdrangonfruit
p775
aa(lp776
Vdrumette
p777
aVdrumett
p778
aa(lp779
Vdrumlett
p780
aVdrumlette
p781
aVdrumletts
p782
aa(lp783
Vdubu
p784
aVsoondubu
p785
aa(lp786
Vdumpl
p787
aVdumpling
p788
aa(lp789
Vdunkel
p790
aVdunke
p791
aa(lp792
Vdupbab
p793
aVdupbap
p794
aVdup
p795
aa(lp796
Vdwaeji
p797
aVdoaeji
p798
aVdoeji
p799
aVdoeaji
p800
aa(lp801
Vearl
p802
aVearly
p803
aa(lp804
Vearthen
p805
aVearthern
p806
aa(lp807
Vee
p808
aVyee
p809
aa(lp810
Veel
p811
aVeeel
p812
aa(lp813
Vegglet
p814
aVegglette
p815
aa(lp816
Veihire
p817
aVehire
p818
aa(lp819
Venfermera
p820
aVenfermer
p821
aa(lp822
Veo
p823
aVseol
p824
aVseot
p825
aa(lp826
Ves
p827
aVjessie
p828
aa(lp829
Vespanola
p830
aVespaola
p831
aa(lp832
Vessence
p833
aVesssence
p834
aa(lp835
Vestaphe
p836
aVestephe
p837
aa(lp838
Vetienne
p839
aVeitienne
p840
aa(lp841
Vew
p842
aVeew
p843
aVyew
p844
aVeiw
p845
aVewe
p846
aVpriew
p847
aVlew
p848
aVaew
p849
aVeiew
p850
aa(lp851
Vfa
p852
aVfak
p853
aVfag
p854
aa(lp855
Vfai
p856
aVfaidang
p857
aa(lp858
Vfarang
p859
aVfalang
p860
aa(lp861
Vfaugere
p862
aVfauger
p863
aa(lp864
Vfeed
p865
aVfed
p866
aa(lp867
Vfermented
p868
aVferment
p869
aa(lp870
Vferraro
p871
aVferrero
p872
aa(lp873
Vfettu
p874
aVfettuce
p875
aa(lp876
Vfettuccine
p877
aVfettucine
p878
aVfettucini
p879
aa(lp880
Vfiletto
p881
aVfilitto
p882
aa(lp883
Vfilleto
p884
aVletto
p885
aVfilletto
p886
aa(lp887
Vfiorentina
p888
aVflorentina
p889
aVfoorentina
p890
aa(lp891
Vfishing
p892
aVfishin
p893
aa(lp894
Vfitter
p895
aVfilter
p896
aa(lp897
Vfizzy
p898
aVfrizzy
p899
aa(lp900
Vflambed
p901
aVflambeed
p902
aa(lp903
Vfloral
p904
aVmonofloral
p905
aVpolyfloral
p906
aa(lp907
Vfoie
p908
aVfois
p909
aa(lp910
Vfoo
p911
aVfo
p912
aa(lp913
Vfoong
p914
aVloong
p915
aa(lp916
Vformaggi
p917
aVformaggio
p918
aVformagi
p919
aVformagg
p920
aVformagio
p921
aa(lp922
Vfoul
p923
aVful
p924
aa(lp925
Vfra
p926
aVfranco
p927
aa(lp928
Vfrazi
p929
aVfrezi
p930
aVfraizi
p931
aa(lp932
Vfreeze
p933
aVfreezer
p934
aa(lp935
Vfrittata
p936
aVfritata
p937
aa(lp938
Vfritto
p939
aVfritti
p940
aa(lp941
Vfrutti
p942
aVfruitti
p943
aa(lp944
Vfudge
p945
aVfudgey
p946
aa(lp947
Vfuisse
p948
aVfuiss
p949
aa(lp950
Vfume
p951
aVfme
p952
aa(lp953
Vfun
p954
aVhorfun
p955
aa(lp956
Vfunghi
p957
aVfungh
p958
aVfunghai
p959
aa(lp960
Vfurai
p961
aVfuri
p962
aa(lp963
Vfusilli
p964
aVfusili
p965
aa(lp966
Vgae
p967
aVdae
p968
aVdaeji
p969
aVyukge
p970
aVyukke
p971
aVyuhke
p972
aVyukgae
p973
aa(lp974
Vgaeng
p975
aVkaeng
p976
aVkaneng
p977
aa(lp978
Vgalet
p979
aVjalet
p980
aa(lp981
Vgalletto
p982
aVgaletto
p983
aa(lp984
Vgallo
p985
aVgalo
p986
aa(lp987
Vgamba
p988
aVgambas
p989
aa(lp990
Vganoush
p991
aVghanoush
p992
aVganus
p993
aVganush
p994
aa(lp995
Vgegrillte
p996
aVgegrilltem
p997
aa(lp998
Vghanouj
p999
aVghanouji
p1000
aa(lp1001
Vgi
p1002
aVch
p1003
aVci
p1004
aa(lp1005
Vgilafi
p1006
aVgilaffi
p1007
aa(lp1008
Vgindara
p1009
aVgintara
p1010
aa(lp1011
Vginger
p1012
aVginnger
p1013
aa(lp1014
Vginjo
p1015
aVdaiginjou
p1016
aa(lp1017
Vginkgo
p1018
aVginko
p1019
aa(lp1020
Vgiulo
p1021
aVgiulio
p1022
aa(lp1023
Vglenfiddich
p1024
aVglenhiddich
p1025
aa(lp1026
Vgobi
p1027
aVgobhi
p1028
aVghobi
p1029
aa(lp1030
Vgoby
p1031
aVgorby
p1032
aa(lp1033
Vgoddess
p1034
aVgoddness
p1035
aa(lp1036
Vgodungeo
p1037
aVgodeungeo
p1038
aa(lp1039
Vgoh
p1040
aVgou
p1041
aa(lp1042
Vgoi
p1043
aVxoi
p1044
aa(lp1045
Vgol
p1046
aVgul
p1047
aa(lp1048
Vgoreng
p1049
aVgeoreng
p1050
aVgoren
p1051
aa(lp1052
Vgosht
p1053
aVcosht
p1054
aa(lp1055
Vgoujon
p1056
aVgourjon
p1057
aa(lp1058
Vgourd
p1059
aVgrourd
p1060
aa(lp1061
Vgrandmere
p1062
aVgrandmre
p1063
aa(lp1064
Vgrappao
p1065
aVgrappa
p1066
aVgrappo
p1067
aa(lp1068
Vgrated
p1069
aVgrate
p1070
aa(lp1071
Vgratien
p1072
aVgratiem
p1073
aa(lp1074
Vgravlax
p1075
aVgraviax
p1076
aa(lp1077
Vgrey
p1078
aVgray
p1079
aa(lp1080
Vgrill
p1081
aVchargrill
p1082
aa(lp1083
Vgruyere
p1084
aVgruyre
p1085
aa(lp1086
Vguchi
p1087
aVgucchi
p1088
aa(lp1089
Vguinness
p1090
aVguiness
p1091
aa(lp1092
Vgula
p1093
aVguala
p1094
aa(lp1095
Vgulab
p1096
aVgulad
p1097
aVgulaab
p1098
aa(lp1099
Vgullstan
p1100
aVgulistan
p1101
aa(lp1102
Vgulzaar
p1103
aVguizaar
p1104
aa(lp1105
Vgungpo
p1106
aVgongpo
p1107
aa(lp1108
Vgyu
p1109
aVryu
p1110
aVrayu
p1111
aVrayo
p1112
aa(lp1113
Vhaemool
p1114
aVhaemooi
p1115
aa(lp1116
Vhagen
p1117
aVhaagen
p1118
aa(lp1119
Vhai
p1120
aVxai
p1121
aa(lp1122
Vhamachi
p1123
aVama
p1124
aa(lp1125
Vhappiness
p1126
aVhappine
p1127
aa(lp1128
Vhar
p1129
aVha
p1130
aVhak
p1131
aa(lp1132
Vharadhaniaya
p1133
aVharadhania
p1134
aa(lp1135
Vhariyali
p1136
aVharyali
p1137
aa(lp1138
Vharra
p1139
aVharrah
p1140
aa(lp1141
Vhawke
p1142
aVhawk
p1143
aa(lp1144
Vhazarvi
p1145
aVhazarwi
p1146
aa(lp1147
Vhemingway
p1148
aVhemmingway
p1149
aa(lp1150
Vherumetto
p1151
aVherumertto
p1152
aa(lp1153
Vhiang
p1154
aVhiong
p1155
aVhlong
p1156
aa(lp1157
Vhiyayakko
p1158
aVhiyayako
p1159
aa(lp1160
Vhocus
p1161
aVpocus
p1162
aa(lp1163
Vhoisin
p1164
aVhoison
p1165
aa(lp1166
Vhokey
p1167
aVpokey
p1168
aa(lp1169
Vhokien
p1170
aVhockien
p1171
aa(lp1172
Vhola
p1173
aVhula
p1174
aa(lp1175
Vhonjyozo
p1176
aVhonjozo
p1177
aa(lp1178
Vhoon
p1179
aVbee
p1180
aVbeehoon
p1181
aVmeehoon
p1182
aa(lp1183
Vhorenso
p1184
aVhourenso
p1185
aa(lp1186
Vhoriati
p1187
aVhoriatiki
p1188
aa(lp1189
Vhotstone
p1190
aVston
p1191
aa(lp1192
Vhoy
p1193
aVhoi
p1194
aa(lp1195
Vhyderabadi
p1196
aVhyderbadi
p1197
aa(lp1198
Vidako
p1199
aViidako
p1200
aVitako
p1201
aVildako
p1202
aVlidako
p1203
aVidago
p1204
aa(lp1205
Vidly
p1206
aVidli
p1207
aViddli
p1208
aa(lp1209
Vif
p1210
aVthrif
p1211
aa(lp1212
Vika
p1213
aVyariika
p1214
aa(lp1215
Vikageso
p1216
aVgeso
p1217
aVgesu
p1218
aVgesso
p1219
aa(lp1220
Vikka
p1221
aVtiikka
p1222
aa(lp1223
Vile
p1224
aVaile
p1225
aa(lp1226
Vimpepata
p1227
aVpepata
p1228
aa(lp1229
Vinaniwa
p1230
aVinariwa
p1231
aa(lp1232
Vindonesian
p1233
aVindonesia
p1234
aa(lp1235
Ving
p1236
aVthing
p1237
aa(lp1238
Vinjeolmi
p1239
aVinjeomi
p1240
aa(lp1241
Vinni
p1242
aVinnis
p1243
aa(lp1244
Vinsalata
p1245
aVinsalate
p1246
aa(lp1247
Viskandar
p1248
aViskand
p1249
aa(lp1250
Vistimewa
p1251
aVistemewa
p1252
aVistimewah
p1253
aa(lp1254
Vitek
p1255
aVitik
p1256
aa(lp1257
Viwashi
p1258
aViwasshi
p1259
aa(lp1260
Vizgara
p1261
aVizcara
p1262
aa(lp1263
Vjako
p1264
aVjyako
p1265
aa(lp1266
Vjal
p1267
aVjhal
p1268
aVjalalli
p1269
aa(lp1270
Vjalapeno
p1271
aVjalapeo
p1272
aa(lp1273
Vjalfarezi
p1274
aVjalfarezy
p1275
aa(lp1276
Vjalfrazi
p1277
aVjhalfrazi
p1278
aa(lp1279
Vjambon
p1280
aVjumbon
p1281
aa(lp1282
Vjamin
p1283
aVjamun
p1284
aa(lp1285
Vjamon
p1286
aVjamn
p1287
aa(lp1288
Vjapan
p1289
aVjapon
p1290
aa(lp1291
Vjapchae
p1292
aVjang
p1293
aVjajang
p1294
aVgamja
p1295
aVja
p1296
aVjja
p1297
aVgom
p1298
aVhejang
p1299
aVgam
p1300
aVjapche
p1301
aVjjajangbap
p1302
aa(lp1303
Vjehangiri
p1304
aVjehangir
p1305
aa(lp1306
Vjenny
p1307
aVjennys
p1308
aa(lp1309
Vjeong
p1310
aVjiong
p1311
aa(lp1312
Vjew
p1313
aVjet
p1314
aVjee
p1315
aa(lp1316
Vjeyuk
p1317
aVjaeyuk
p1318
aa(lp1319
Vjhim
p1320
aVrhim
p1321
aa(lp1322
Vjhinga
p1323
aVjhingha
p1324
aVjingha
p1325
aa(lp1326
Vjia
p1327
aVjip
p1328
aa(lp1329
Vjiang
p1330
aVzhajiang
p1331
aVzhenjiang
p1332
aa(lp1333
Vjing
p1334
aVjingdu
p1335
aa(lp1336
Vjiru
p1337
aVjiro
p1338
aa(lp1339
Vjjigae
p1340
aVjjiage
p1341
aVjijigae
p1342
aVjigae
p1343
aVjjige
p1344
aa(lp1345
Vjjim
p1346
aVjjimdak
p1347
aVjiim
p1348
aa(lp1349
Vjohnnie
p1350
aVjohnie
p1351
aa(lp1352
Vjolly
p1353
aVholly
p1354
aa(lp1355
Vjosh
p1356
aVgosh
p1357
aa(lp1358
Vjula
p1359
aVjuli
p1360
aa(lp1361
Vjun
p1362
aVjungol
p1363
aa(lp1364
Vka
p1365
aVkamal
p1366
aa(lp1367
Vkaakra
p1368
aVkankra
p1369
aa(lp1370
Vkabayaki
p1371
aVkaba
p1372
aVkapayaki
p1373
aVkabanyaki
p1374
aa(lp1375
Vkabuli
p1376
aVkhabuli
p1377
aa(lp1378
Vkachumber
p1379
aVkachumbar
p1380
aVkuchumber
p1381
aVkuchumbar
p1382
aa(lp1383
Vkadai
p1384
aVkadhai
p1385
aVkedai
p1386
aVkadahi
p1387
aVkarahi
p1388
aVkadaai
p1389
aVkhadai
p1390
aa(lp1391
Vkadi
p1392
aVkadhi
p1393
aVkada
p1394
aa(lp1395
Vkah
p1396
aVkar
p1397
aVtah
p1398
aVtay
p1399
aVpongtay
p1400
aVrah
p1401
aa(lp1402
Vkai
p1403
aVkwai
p1404
aVkhai
p1405
aVkhal
p1406
aa(lp1407
Vkaiso
p1408
aVkaisou
p1409
aa(lp1410
Vkake
p1411
aVbukkake
p1412
aa(lp1413
Vkalamaki
p1414
aVkalmaki
p1415
aa(lp1416
Vkambing
p1417
aVkamb
p1418
aa(lp1419
Vkana
p1420
aVkhana
p1421
aa(lp1422
Vkanchiong
p1423
aVkachiong
p1424
aa(lp1425
Vkang
p1426
aVkangkong
p1427
aVkangkung
p1428
aVkan
p1429
aa(lp1430
Vkao
p1431
aVgao
p1432
aVkau
p1433
aVkow
p1434
aVkou
p1435
aVkaw
p1436
aVgow
p1437
aVgau
p1438
aa(lp1439
Vkaraage
p1440
aVkarage
p1441
aVkaarage
p1442
aVkarrage
p1443
aVkarange
p1444
aVkararage
p1445
aa(lp1446
Vkaree
p1447
aVgaree
p1448
aa(lp1449
Vkashmiri
p1450
aVkashimiri
p1451
aVkasmiri
p1452
aVkashmir
p1453
aVkashmiru
p1454
aa(lp1455
Vkathi
p1456
aVkati
p1457
aa(lp1458
Vkawali
p1459
aVwal
p1460
aVwally
p1461
aa(lp1462
Vkebab
p1463
aVkabab
p1464
aVkebeb
p1465
aVkabeb
p1466
aa(lp1467
Vkeema
p1468
aVkheema
p1469
aVkeena
p1470
aa(lp1471
Vkeow
p1472
aVkhiew
p1473
aVkeaw
p1474
aVkhew
p1475
aVkeo
p1476
aVkaew
p1477
aVkheaw
p1478
aa(lp1479
Vkepet
p1480
aVkepeting
p1481
aVkepiting
p1482
aVkepit
p1483
aa(lp1484
Vkerala
p1485
aVkerela
p1486
aa(lp1487
Vkerupuk
p1488
aVkrupuk
p1489
aa(lp1490
Vkeuy
p1491
aVkay
p1492
aVkauy
p1493
aa(lp1494
Vkhameri
p1495
aVkhamiri
p1496
aa(lp1497
Vkhao
p1498
aVkhaw
p1499
aa(lp1500
Vkhem
p1501
aVkem
p1502
aa(lp1503
Vkhi
p1504
aVkhing
p1505
aVkhung
p1506
aa(lp1507
Vkhichdi
p1508
aVkhichadi
p1509
aa(lp1510
Vkho
p1511
aVkhm
p1512
aa(lp1513
Vki
p1514
aVapki
p1515
aa(lp1516
Vkicap
p1517
aVkecap
p1518
aVkichap
p1519
aVkechap
p1520
aa(lp1521
Vkiew
p1522
aVpiew
p1523
aa(lp1524
Vkit
p1525
aVkat
p1526
aa(lp1527
Vknife
p1528
aVknice
p1529
aa(lp1530
Vko
p1531
aVsadeko
p1532
aa(lp1533
Vkofta
p1534
aVkafta
p1535
aVkoftha
p1536
aVkoptha
p1537
aa(lp1538
Vkoliwada
p1539
aVkollwada
p1540
aa(lp1541
Vkong
p1542
aVhong
p1543
aa(lp1544
Vkoong
p1545
aVkhoong
p1546
aa(lp1547
Vkor
p1548
aVkod
p1549
aa(lp1550
Vkorma
p1551
aVkhorma
p1552
aa(lp1553
Vkorokke
p1554
aVkoroke
p1555
aa(lp1556
Vkorubuta
p1557
aVkorobuta
p1558
aa(lp1559
Vkothu
p1560
aVkotthu
p1561
aVkoothu
p1562
aVkotu
p1563
aVkoththu
p1564
aVkottu
p1565
aVkuthu
p1566
aa(lp1567
Vkra
p1568
aVkratiem
p1569
aVkrai
p1570
aVkratiam
p1571
aVtakkrai
p1572
aa(lp1573
Vkrapaw
p1574
aVkrapao
p1575
aa(lp1576
Vkrem
p1577
aVkreme
p1578
aa(lp1579
Vkrob
p1580
aVgrob
p1581
aa(lp1582
Vkrung
p1583
aVkrueng
p1584
aa(lp1585
Vkuah
p1586
aVkwah
p1587
aa(lp1588
Vkuksu
p1589
aVguksu
p1590
aa(lp1591
Vkulchan
p1592
aVkunchan
p1593
aa(lp1594
Vkun
p1595
aVkuning
p1596
aa(lp1597
Vkurage
p1598
aVkuraage
p1599
aa(lp1600
Vkurkure
p1601
aVkurkuri
p1602
aVkur
p1603
aVkuri
p1604
aa(lp1605
Vkuro
p1606
aVkurosu
p1607
aa(lp1608
Vkusbasili
p1609
aVkusbasi
p1610
aVkusbasli
p1611
aa(lp1612
Vkut
p1613
aVkuh
p1614
aa(lp1615
Vkutumbiri
p1616
aVkutambiri
p1617
aa(lp1618
Vkway
p1619
aVkuay
p1620
aVkuey
p1621
aVkoay
p1622
aVkwey
p1623
aa(lp1624
Vkwe
p1625
aVkwetiaw
p1626
aa(lp1627
Vkyu
p1628
aVjyu
p1629
aa(lp1630
Vlaal
p1631
aVlal
p1632
aa(lp1633
Vlabneh
p1634
aVlabnah
p1635
aa(lp1636
Vlacha
p1637
aVlachha
p1638
aVlaccha
p1639
aVlachcha
p1640
aVlacchha
p1641
aVlatcha
p1642
aVlanchcha
p1643
aVlachna
p1644
aa(lp1645
Vlad
p1646
aVsad
p1647
aa(lp1648
Vlagare
p1649
aVlagareiro
p1650
aa(lp1651
Vlan
p1652
aVkailan
p1653
aa(lp1654
Vlankan
p1655
aVlanka
p1656
aa(lp1657
Vlao
p1658
aVlau
p1659
aVlu
p1660
aVru
p1661
aVruo
p1662
aa(lp1663
Vlarb
p1664
aVlaab
p1665
aVlahb
p1666
aa(lp1667
Vlasagna
p1668
aVlasagne
p1669
aa(lp1670
Vlasuni
p1671
aVlashuni
p1672
aa(lp1673
Vlavender
p1674
aVlavendar
p1675
aa(lp1676
Vleab
p1677
aVliab
p1678
aVlieb
p1679
aVliap
p1680
aa(lp1681
Vlehsuni
p1682
aVlehsumi
p1683
aa(lp1684
Vlet
p1685
aVdet
p1686
aa(lp1687
Vlgume
p1688
aVlegume
p1689
aa(lp1690
Vlily
p1691
aVlilybulb
p1692
aa(lp1693
Vlimau
p1694
aVlimao
p1695
aVlimo
p1696
aa(lp1697
Vlindeman
p1698
aVlindenman
p1699
aa(lp1700
Vlinguine
p1701
aVlinguinne
p1702
aa(lp1703
Vlok
p1704
aVfok
p1705
aa(lp1706
Vlollipop
p1707
aVlolipop
p1708
aa(lp1709
Vlor
p1710
aVlou
p1711
aVloh
p1712
aa(lp1713
Vlot
p1714
aVvt
p1715
aVlt
p1716
aa(lp1717
Vluc
p1718
aVlac
p1719
aa(lp1720
Vlucknowi
p1721
aVlucknawi
p1722
aa(lp1723
Vlunette
p1724
aVlune
p1725
aa(lp1726
Vmaas
p1727
aVmass
p1728
aa(lp1729
Vmaca
p1730
aVmaka
p1731
aa(lp1732
Vmacaron
p1733
aVmacaroon
p1734
aVmacroon
p1735
aa(lp1736
Vmach
p1737
aVmachchi
p1738
aVmachee
p1739
aa(lp1740
Vmachli
p1741
aVmachali
p1742
aVmacchli
p1743
aa(lp1744
Vmachlici
p1745
aVmachilici
p1746
aa(lp1747
Vmadonnina
p1748
aVmadonninna
p1749
aa(lp1750
Vmaggie
p1751
aVmaggi
p1752
aVmaggige
p1753
aa(lp1754
Vmagherita
p1755
aVmargharita
p1756
aVmagharita
p1757
aa(lp1758
Vmaguro
p1759
aVmagura
p1760
aa(lp1761
Vmakai
p1762
aVmakki
p1763
aVmakkai
p1764
aa(lp1765
Vmakhani
p1766
aVmakhni
p1767
aVmakahni
p1768
aVmakheni
p1769
aVmakahani
p1770
aa(lp1771
Vmaki
p1772
aVtemaki
p1773
aa(lp1774
Vmakni
p1775
aVmakini
p1776
aa(lp1777
Vmakunouchi
p1778
aVmaunouchi
p1779
aa(lp1780
Vmalabar
p1781
aVmalabari
p1782
aa(lp1783
Vmalacca
p1784
aVmelacca
p1785
aa(lp1786
Vmalay
p1787
aVmalaysian
p1788
aa(lp1789
Vmambo
p1790
aVmumbo
p1791
aa(lp1792
Vmami
p1793
aVmarmi
p1794
aa(lp1795
Vmamre
p1796
aVmamrre
p1797
aa(lp1798
Vmanao
p1799
aVmanau
p1800
aa(lp1801
Vmanchurian
p1802
aVmanchorian
p1803
aa(lp1804
Vmandi
p1805
aVmendi
p1806
aa(lp1807
Vmani
p1808
aVmanis
p1809
aa(lp1810
Vmanpasand
p1811
aVmanpasanda
p1812
aa(lp1813
Vmanul
p1814
aVtongmanul
p1815
aa(lp1816
Vmanzo
p1817
aVmanzow
p1818
aa(lp1819
Vmari
p1820
aVmeri
p1821
aa(lp1822
Vmarisco
p1823
aVmariso
p1824
aa(lp1825
Vmaru
p1826
aVmaruyaki
p1827
aVmaryaki
p1828
aa(lp1829
Vmasak
p1830
aVmesak
p1831
aVmasek
p1832
aa(lp1833
Vmasala
p1834
aVmasla
p1835
aa(lp1836
Vmasaledar
p1837
aVmaseledar
p1838
aa(lp1839
Vmasallam
p1840
aVmasal
p1841
aa(lp1842
Vmashwi
p1843
aVmashwii
p1844
aVmeshwi
p1845
aa(lp1846
Vmasi
p1847
aVmabis
p1848
aVmabi
p1849
aa(lp1850
Vmassaman
p1851
aVmassamun
p1852
aVmussaman
p1853
aa(lp1854
Vmatrimony
p1855
aVmatrimoney
p1856
aa(lp1857
Vmauro
p1858
aVuro
p1859
aa(lp1860
Vmaw
p1861
aVfishmaw
p1862
aVmow
p1863
aa(lp1864
Vmc
p1865
aVlaren
p1866
aVclare
p1867
aVmclaren
p1868
aVmclren
p1869
aa(lp1870
Vmedame
p1871
aVmedama
p1872
aa(lp1873
Vmedhu
p1874
aVmedu
p1875
aa(lp1876
Vmeen
p1877
aVneymeen
p1878
aa(lp1879
Vmekajiki
p1880
aVmejajiki
p1881
aa(lp1882
Vmelanza
p1883
aVmelanzana
p1884
aa(lp1885
Vmelanzane
p1886
aVmelazane
p1887
aa(lp1888
Vmelt
p1889
aVmeltz
p1890
aa(lp1891
Vmeng
p1892
aVbeng
p1893
aa(lp1894
Vmentai
p1895
aVmentaiyaki
p1896
aa(lp1897
Vmentega
p1898
aVmentegate
p1899
aa(lp1900
Vmer
p1901
aVme
p1902
aa(lp1903
Vmerah
p1904
aVmera
p1905
aa(lp1906
Vmeshi
p1907
aVkamameshi
p1908
aa(lp1909
Vmeuk
p1910
aVmerk
p1911
aa(lp1912
Vmexx
p1913
aVmexa
p1914
aa(lp1915
Vmeze
p1916
aVmezze
p1917
aa(lp1918
Vmiao
p1919
aVmilao
p1920
aVmiau
p1921
aa(lp1922
Vmichel
p1923
aVmichael
p1924
aVmichelle
p1925
aa(lp1926
Vmid
p1927
aVmd
p1928
aa(lp1929
Vmie
p1930
aVindomie
p1931
aa(lp1932
Vmikey
p1933
aVmikeys
p1934
aa(lp1935
Vmilagha
p1936
aVmilgha
p1937
aa(lp1938
Vmili
p1939
aVmila
p1940
aVmilli
p1941
aa(lp1942
Vmilkish
p1943
aVmilkfish
p1944
aa(lp1945
Vmincedmeat
p1946
aVmincemeat
p1947
aa(lp1948
Vmirch
p1949
aVmirchi
p1950
aVmirchwala
p1951
aVmirchwaka
p1952
aa(lp1953
Vmirin
p1954
aVfugumirin
p1955
aa(lp1956
Vmixed
p1957
aVmix
p1958
aa(lp1959
Vmiz
p1960
aVkirmizi
p1961
aa(lp1962
Vml
p1963
aVbling
p1964
aVbl
p1965
aa(lp1966
Vmo
p1967
aVmoh
p1968
aa(lp1969
Vmodum
p1970
aVmodeum
p1971
aa(lp1972
Vmoham
p1973
aVmohamed
p1974
aa(lp1975
Vmoilee
p1976
aVmollee
p1977
aa(lp1978
Vmoine
p1979
aVmoin
p1980
aa(lp1981
Vmonsieur
p1982
aVmonsieu
p1983
aa(lp1984
Vmontepulciano
p1985
aVmontepulciana
p1986
aa(lp1987
Vmora
p1988
aVmoka
p1989
aa(lp1990
Vmoretti
p1991
aVmorretti
p1992
aa(lp1993
Vmoriawase
p1994
aVmoriwase
p1995
aa(lp1996
Vmorrocan
p1997
aVmorocan
p1998
aa(lp1999
Vmorunos
p2000
aVmoruno
p2001
aa(lp2002
Vmoung
p2003
aVhoung
p2004
aa(lp2005
Vmourvedre
p2006
aVmourvdre
p2007
aa(lp2008
Vmousakka
p2009
aVmousakaa
p2010
aa(lp2011
Vmoussaka
p2012
aVmousaka
p2013
aVmussaka
p2014
aa(lp2015
Vmoz
p2016
aVmozz
p2017
aa(lp2018
Vmozarella
p2019
aVmozerella
p2020
aa(lp2021
Vmuek
p2022
aVmurk
p2023
aa(lp2024
Vmui
p2025
aVhui
p2026
aa(lp2027
Vmun
p2028
aVmua
p2029
aa(lp2030
Vmurgh
p2031
aVmurg
p2032
aVmurghi
p2033
aVmurhg
p2034
aa(lp2035
Vmurtabak
p2036
aVmutabak
p2037
aVmurthabak
p2038
aVmurabak
p2039
aVmurutabak
p2040
aa(lp2041
Vmurthabha
p2042
aVmurthaba
p2043
aa(lp2044
Vmushroom
p2045
aVmushrom
p2046
aVmushoom
p2047
aa(lp2048
Vmutter
p2049
aVmattar
p2050
aVmatar
p2051
aVmatter
p2052
aVmuttar
p2053
aa(lp2054
Vmyeongdong
p2055
aVmyeondong
p2056
aa(lp2057
Vmyon
p2058
aVmyun
p2059
aa(lp2060
Vmysore
p2061
aVmysure
p2062
aa(lp2063
Vnaan
p2064
aVnann
p2065
aa(lp2066
Vnaengmyun
p2067
aVnaeng
p2068
aa(lp2069
Vnah
p2070
aVneow
p2071
aVnaa
p2072
aVneaw
p2073
aVnaw
p2074
aa(lp2075
Vnam
p2076
aVnum
p2077
aVnham
p2078
aa(lp2079
Vnana
p2080
aVnena
p2081
aa(lp2082
Vnanban
p2083
aVnaban
p2084
aa(lp2085
Vnangka
p2086
aVnanka
p2087
aa(lp2088
Vnargis
p2089
aVnargisi
p2090
aVnargish
p2091
aa(lp2092
Vnatto
p2093
aVnattou
p2094
aa(lp2095
Vnavratan
p2096
aVnavrattan
p2097
aVnavarattan
p2098
aVnavrathan
p2099
aVnavratran
p2100
aVnavaratan
p2101
aVnavrantan
p2102
aVratan
p2103
aa(lp2104
Vne
p2105
aVkogane
p2106
aa(lp2107
Vneslo
p2108
aVnestlo
p2109
aa(lp2110
Vnethill
p2111
aVnethili
p2112
aa(lp2113
Vng
p2114
aVong
p2115
aa(lp2116
Vngai
p2117
aVnhai
p2118
aa(lp2119
Vngoh
p2120
aVngo
p2121
aVngor
p2122
aa(lp2123
Vnice
p2124
aVfice
p2125
aa(lp2126
Vnicoise
p2127
aVnioise
p2128
aa(lp2129
Vnim
p2130
aVphunim
p2131
aa(lp2132
Vninniku
p2133
aVniniku
p2134
aa(lp2135
Vnm
p2136
aVnem
p2137
aa(lp2138
Vnng
p2139
aVmng
p2140
aa(lp2141
Vnoisette
p2142
aVnoisett
p2143
aa(lp2144
Vnom
p2145
aVom
p2146
aVomm
p2147
aa(lp2148
Vnomiyaki
p2149
aVtakonomiyaki
p2150
aa(lp2151
Vnomnivore
p2152
aVomnivore
p2153
aa(lp2154
Vnor
p2155
aVnormai
p2156
aa(lp2157
Vnorwegian
p2158
aVnorwegien
p2159
aa(lp2160
Vnto
p2161
aVento
p2162
aa(lp2163
Vnua
p2164
aVrua
p2165
aVnue
p2166
aa(lp2167
Vnueng
p2168
aVneng
p2169
aVneung
p2170
aVnuang
p2171
aVnung
p2172
aa(lp2173
Vnuer
p2174
aVnuea
p2175
aa(lp2176
Vnuong
p2177
aVmuong
p2178
aVhuong
p2179
aa(lp2180
Vnyeom
p2181
aVyeom
p2182
aa(lp2183
Vob
p2184
aVobb
p2185
aa(lp2186
Voh
p2187
aVuh
p2188
aa(lp2189
Vonion
p2190
aVorion
p2191
aa(lp2192
Vonstik
p2193
aVonstick
p2194
aa(lp2195
Voothappam
p2196
aVoothapam
p2197
aa(lp2198
Vop
p2199
aVoap
p2200
aa(lp2201
Vorecchiette
p2202
aVorecciette
p2203
aa(lp2204
Voreo
p2205
aVorea
p2206
aa(lp2207
Vorientali
p2208
aVorientalin
p2209
aa(lp2210
Vosaka
p2211
aVoska
p2212
aa(lp2213
Voshinko
p2214
aVshinko
p2215
aa(lp2216
Vosuimono
p2217
aVsuimono
p2218
aa(lp2219
Votah
p2220
aVotak
p2221
aa(lp2222
Votoro
p2223
aVootoro
p2224
aa(lp2225
Vou
p2226
aVjou
p2227
aVfitou
p2228
aa(lp2229
Voyako
p2230
aVoyaku
p2231
aVoyaka
p2232
aa(lp2233
Vpacked
p2234
aVhandpacked
p2235
aa(lp2236
Vpadang
p2237
aVpedang
p2238
aVpendang
p2239
aa(lp2240
Vpaigu
p2241
aVpaiku
p2242
aa(lp2243
Vpajeon
p2244
aVpajon
p2245
aVpagjeon
p2246
aVpajun
p2247
aa(lp2248
Vpak
p2249
aVprik
p2250
aVphak
p2251
aVprak
p2252
aa(lp2253
Vpakora
p2254
aVpakoda
p2255
aVpakorda
p2256
aVpakkora
p2257
aVpakkoda
p2258
aVbakora
p2259
aa(lp2260
Vpanaeng
p2261
aVpanang
p2262
aVpaneang
p2263
aVpaneng
p2264
aa(lp2265
Vpaneer
p2266
aVpanner
p2267
aa(lp2268
Vpanggang
p2269
aVpenggang
p2270
aa(lp2271
Vpani
p2272
aVpaani
p2273
aa(lp2274
Vpanzarotti
p2275
aVpanzerotti
p2276
aa(lp2277
Vpapad
p2278
aVpapadum
p2279
aVpapaddum
p2280
aVpappad
p2281
aa(lp2282
Vpapdi
p2283
aVpapri
p2284
aVpapadi
p2285
aVpappadi
p2286
aVpaapdi
p2287
aa(lp2288
Vpaper
p2289
aVpapper
p2290
aa(lp2291
Vpaprik
p2292
aVpadprik
p2293
aVpapprik
p2294
aa(lp2295
Vparmigiana
p2296
aVparmiglana
p2297
aa(lp2298
Vparmigiano
p2299
aVparmagiano
p2300
aVparmiggiano
p2301
aVparmigglano
p2302
aa(lp2303
Vparotta
p2304
aVparota
p2305
aa(lp2306
Vparrilla
p2307
aVparilla
p2308
aa(lp2309
Vparty
p2310
aVkarty
p2311
aa(lp2312
Vpatiyala
p2313
aVpattiyala
p2314
aa(lp2315
Vpattaya
p2316
aVpataya
p2317
aa(lp2318
Vpeek
p2319
aVbeek
p2320
aa(lp2321
Vpeel
p2322
aVpeele
p2323
aa(lp2324
Vpellegrino
p2325
aVpellegriono
p2326
aa(lp2327
Vpen
p2328
aVoopen
p2329
aa(lp2330
Vpeng
p2331
aVweng
p2332
aa(lp2333
Vpenley
p2334
aVpenly
p2335
aa(lp2336
Vpenne
p2337
aVpennette
p2338
aa(lp2339
Vpeperon
p2340
aVpepperon
p2341
aa(lp2342
Vpepper
p2343
aVpep
p2344
aVpeppper
p2345
aa(lp2346
Vpeshawari
p2347
aVpeshwari
p2348
aVpeswari
p2349
aVpesuwari
p2350
aa(lp2351
Vphad
p2352
aVpad
p2353
aVphat
p2354
aVphai
p2355
aVphap
p2356
aVphag
p2357
aa(lp2358
Vphaldari
p2359
aVphaldhari
p2360
aa(lp2361
Vphet
p2362
aVpiah
p2363
aVpiao
p2364
aVpiat
p2365
aVpiet
p2366
aa(lp2367
Vphiladephia
p2368
aVphiladelphia
p2369
aa(lp2370
Vphoneix
p2371
aVphonex
p2372
aa(lp2373
Vpia
p2374
aVphia
p2375
aa(lp2376
Vpic
p2377
aVepice
p2378
aa(lp2379
Vpierrele
p2380
aVpierrelee
p2381
aa(lp2382
Vpitan
p2383
aVpidan
p2384
aa(lp2385
Vplank
p2386
aVplanky
p2387
aa(lp2388
Vplanta
p2389
aVpianta
p2390
aa(lp2391
Vpodina
p2392
aVpoodina
p2393
aa(lp2394
Vpoiully
p2395
aVpoully
p2396
aa(lp2397
Vpolichatu
p2398
aVpolichathu
p2399
aa(lp2400
Vpollo
p2401
aVpollodi
p2402
aa(lp2403
Vpolpo
p2404
aVpolipo
p2405
aa(lp2406
Vpomerol
p2407
aVpromerol
p2408
aa(lp2409
Vpomme
p2410
aVpomm
p2411
aa(lp2412
Vpong
p2413
aVkrapong
p2414
aa(lp2415
Vpongteh
p2416
aVponteh
p2417
aa(lp2418
Vpopbit
p2419
aVpopbite
p2420
aa(lp2421
Vporcini
p2422
aVporchini
p2423
aa(lp2424
Vpouilly
p2425
aVpuilly
p2426
aa(lp2427
Vpow
p2428
aVpraw
p2429
aVprow
p2430
aVgraprow
p2431
aa(lp2432
Vprata
p2433
aVparatha
p2434
aVparata
p2435
aVparantha
p2436
aVpratha
p2437
aVprantha
p2438
aVpartha
p2439
aVparatta
p2440
aa(lp2441
Vpri
p2442
aVgrai
p2443
aVprai
p2444
aa(lp2445
Vprimavera
p2446
aVprimevera
p2447
aa(lp2448
Vproscuitto
p2449
aVproscuito
p2450
aVproscutto
p2451
aa(lp2452
Vpulao
p2453
aVpulav
p2454
aVpilau
p2455
aVpulau
p2456
aVpillau
p2457
aVpilao
p2458
aVpalau
p2459
aa(lp2460
Vpull
p2461
aVpupll
p2462
aa(lp2463
Vpumkin
p2464
aVpumpin
p2465
aa(lp2466
Vpunggol
p2467
aVponggol
p2468
aa(lp2469
Vpunjabi
p2470
aVpanj
p2471
aVpanjabi
p2472
aa(lp2473
Vputtanesca
p2474
aVputanesca
p2475
aa(lp2476
Vputtu
p2477
aVputu
p2478
aVputhu
p2479
aa(lp2480
Vpyaaz
p2481
aVpyaz
p2482
aa(lp2483
Vpyaza
p2484
aVpiaza
p2485
aVpiyaza
p2486
aVpiazza
p2487
aVpyazza
p2488
aVpyaaza
p2489
aVpiyasa
p2490
aVpeyaza
p2491
aa(lp2492
Vqinlong
p2493
aVqinglong
p2494
aa(lp2495
Vqua
p2496
aVqut
p2497
aVquet
p2498
aa(lp2499
Vquattro
p2500
aVquanttro
p2501
aa(lp2502
Vquay
p2503
aVquai
p2504
aa(lp2505
Vquesadilla
p2506
aVquesidilla
p2507
aa(lp2508
Vraclette
p2509
aVraclettte
p2510
aa(lp2511
Vrad
p2512
aVraad
p2513
aVrhad
p2514
aVradd
p2515
aa(lp2516
Vragu
p2517
aVrag
p2518
aa(lp2519
Vramyeon
p2520
aVramyon
p2521
aa(lp2522
Vramyun
p2523
aVramyum
p2524
aa(lp2525
Vrau
p2526
aVcau
p2527
aa(lp2528
Vrava
p2529
aVrawa
p2530
aa(lp2531
Vrawan
p2532
aVrawang
p2533
aa(lp2534
Vrebus
p2535
aVreebus
p2536
aVrobus
p2537
aVrubus
p2538
aa(lp2539
Vreisyu
p2540
aVsyu
p2541
aa(lp2542
Vrelleno
p2543
aVrellenos
p2544
aa(lp2545
Vreshmi
p2546
aVreshami
p2547
aVresmi
p2548
aa(lp2549
Vrestore
p2550
aVrestor
p2551
aa(lp2552
Vrillet
p2553
aVgrillet
p2554
aa(lp2555
Vrillette
p2556
aVrilette
p2557
aVrillete
p2558
aa(lp2559
Vroasted
p2560
aVroast
p2561
aa(lp2562
Vrogan
p2563
aVroganjosh
p2564
aVroghan
p2565
aVrugan
p2566
aVrogam
p2567
aVrojan
p2568
aa(lp2569
Vroganosh
p2570
aVrogangosh
p2571
aa(lp2572
Vroja
p2573
aVrojo
p2574
aa(lp2575
Vromaine
p2576
aVroman
p2577
aVromain
p2578
aa(lp2579
Vroti
p2580
aVrotti
p2581
aVrooti
p2582
aa(lp2583
Vrotwein
p2584
aVrotweinsobe
p2585
aa(lp2586
Vrucola
p2587
aVrucula
p2588
aa(lp2589
Vruem
p2590
aVruom
p2591
aa(lp2592
Vrumali
p2593
aVromali
p2594
aa(lp2595
Vsa
p2596
aVsac
p2597
aa(lp2598
Vsaag
p2599
aVsaagwala
p2600
aVsag
p2601
aa(lp2602
Vsaba
p2603
aVtorosaba
p2604
aa(lp2605
Vsabzi
p2606
aVsubji
p2607
aVsubzi
p2608
aVsabz
p2609
aa(lp2610
Vsah
p2611
aVyah
p2612
aa(lp2613
Vsaikyo
p2614
aVsaiko
p2615
aa(lp2616
Vsalata
p2617
aVsalatasi
p2618
aa(lp2619
Vsalmonand
p2620
aVsalmo
p2621
aa(lp2622
Vsalsiccia
p2623
aVsalciccia
p2624
aa(lp2625
Vsalt
p2626
aVsalted
p2627
aa(lp2628
Vsaltate
p2629
aVsaltati
p2630
aa(lp2631
Vsaltimbocca
p2632
aVsatimbocca
p2633
aa(lp2634
Vsamak
p2635
aVsammak
p2636
aa(lp2637
Vsambar
p2638
aVsambhar
p2639
aa(lp2640
Vsamgye
p2641
aVgye
p2642
aVsamge
p2643
aa(lp2644
Vsamosa
p2645
aVsamosas
p2646
aa(lp2647
Vsamunprai
p2648
aVsamun
p2649
aa(lp2650
Vsapade
p2651
aVsopade
p2652
aa(lp2653
Vsapp
p2654
aVsaab
p2655
aVsaap
p2656
aa(lp2657
Vsapparod
p2658
aVsupparod
p2659
aVsubparod
p2660
aVsapparot
p2661
aVsapproad
p2662
aVsapparoad
p2663
aa(lp2664
Vsarada
p2665
aVsalada
p2666
aa(lp2667
Vsardin
p2668
aVsadin
p2669
aa(lp2670
Vsarson
p2671
aVserson
p2672
aa(lp2673
Vsashimi
p2674
aVshashimi
p2675
aa(lp2676
Vsauteed
p2677
aVsaute
p2678
aa(lp2679
Vscaloppina
p2680
aVscaloppine
p2681
aa(lp2682
Vseabass
p2683
aVbass
p2684
aa(lp2685
Vsee
p2686
aVswe
p2687
aa(lp2688
Vseekh
p2689
aVsheekh
p2690
aVsheesh
p2691
aVshekh
p2692
aa(lp2693
Vselatan
p2694
aVselaten
p2695
aa(lp2696
Vsen
p2697
aVwonsen
p2698
aa(lp2699
Vseppia
p2700
aVseppie
p2701
aVseppla
p2702
aa(lp2703
Vsev
p2704
aVsav
p2705
aa(lp2706
Vshaka
p2707
aVshuka
p2708
aa(lp2709
Vshakahari
p2710
aVsakahari
p2711
aa(lp2712
Vshami
p2713
aVshammi
p2714
aa(lp2715
Vshao
p2716
aVshaox
p2717
aa(lp2718
Vshara
p2719
aVskara
p2720
aa(lp2721
Vshark
p2722
aVsharkfin
p2723
aa(lp2724
Vshashlik
p2725
aVshaslik
p2726
aVsaslik
p2727
aa(lp2728
Vshawarma
p2729
aVsharwarma
p2730
aa(lp2731
Vshen
p2732
aVchen
p2733
aa(lp2734
Vsheng
p2735
aVyusheng
p2736
aa(lp2737
Vshepard
p2738
aVsheppard
p2739
aa(lp2740
Vshepherd
p2741
aVsheperd
p2742
aVshepher
p2743
aa(lp2744
Vshime
p2745
aVshimesaba
p2746
aa(lp2747
Vshioyaki
p2748
aVshio
p2749
aVshiokyaki
p2750
aVshioyakki
p2751
aa(lp2752
Vshirazy
p2753
aVshirazi
p2754
aa(lp2755
Vshitake
p2756
aVshittake
p2757
aa(lp2758
Vshoestr
p2759
aVshoestring
p2760
aVshoe
p2761
aa(lp2762
Vshoga
p2763
aVsyoga
p2764
aVshouga
p2765
aVshowa
p2766
aa(lp2767
Vshogayaki
p2768
aVshiogayaki
p2769
aa(lp2770
Vsichaun
p2771
aVsichun
p2772
aa(lp2773
Vsidewinder
p2774
aVwinder
p2775
aa(lp2776
Vsigara
p2777
aVsigora
p2778
aa(lp2779
Vsik
p2780
aVshik
p2781
aa(lp2782
Vsikhye
p2783
aVhye
p2784
aa(lp2785
Vsimla
p2786
aVshimla
p2787
aa(lp2788
Vsin
p2789
aVsinchoo
p2790
aa(lp2791
Vsio
p2792
aVsioh
p2793
aa(lp2794
Vsiput
p2795
aVspiput
p2796
aa(lp2797
Vsirlion
p2798
aVstirlion
p2799
aa(lp2800
Vsirloin
p2801
aVsirlon
p2802
aa(lp2803
Vskuttle
p2804
aVskuttlebutt
p2805
aa(lp2806
Vslice
p2807
aVsliced
p2808
aa(lp2809
Vsoboro
p2810
aVtorisoboro
p2811
aa(lp2812
Vsol
p2813
aVinsolia
p2814
aa(lp2815
Vsooki
p2816
aVsookii
p2817
aa(lp2818
Vsotto
p2819
aVscotto
p2820
aa(lp2821
Vsouman
p2822
aVsoman
p2823
aa(lp2824
Vsoursop
p2825
aVsoursoup
p2826
aa(lp2827
Vsoy
p2828
aVsoya
p2829
aa(lp2830
Vspare
p2831
aVspar
p2832
aa(lp2833
Vspark
p2834
aVsparking
p2835
aa(lp2836
Vspeck
p2837
aVspeak
p2838
aa(lp2839
Vspinaci
p2840
aVspinachi
p2841
aa(lp2842
Vsprite
p2843
aVspite
p2844
aa(lp2845
Vsptzle
p2846
aVspatzle
p2847
aa(lp2848
Vsque
p2849
aVsoue
p2850
aa(lp2851
Vstagioni
p2852
aVstaggioni
p2853
aVsagioni
p2854
aa(lp2855
Vstamina
p2856
aVsutamina
p2857
aa(lp2858
Vsteam
p2859
aVsteamed
p2860
aa(lp2861
Vstiffe
p2862
aVstiffie
p2863
aa(lp2864
Vstin
p2865
aVeastin
p2866
aa(lp2867
Vstinky
p2868
aVstink
p2869
aa(lp2870
Vsu
p2871
aVsui
p2872
aa(lp2873
Vsuay
p2874
aVsuai
p2875
aa(lp2876
Vsugata
p2877
aVsugatayaki
p2878
aVsugita
p2879
aa(lp2880
Vsukhewali
p2881
aVsukhew
p2882
aa(lp2883
Vsuperieur
p2884
aVsuprieur
p2885
aa(lp2886
Vsuppl
p2887
aVsuppli
p2888
aa(lp2889
Vsurf
p2890
aVturf
p2891
aa(lp2892
Vsurfboard
p2893
aVsurftboard
p2894
aa(lp2895
Vta
p2896
aVkata
p2897
aa(lp2898
Vtabbouleh
p2899
aVtabboulah
p2900
aa(lp2901
Vtabouleh
p2902
aVtaboulleh
p2903
aVtaboulih
p2904
aa(lp2905
Vtac
p2906
aVtic
p2907
aa(lp2908
Vtadka
p2909
aVtarka
p2910
aVthadka
p2911
aa(lp2912
Vtaglialioni
p2913
aVtagilialioni
p2914
aa(lp2915
Vtagliata
p2916
aVtagliato
p2917
aa(lp2918
Vtahu
p2919
aVtauhu
p2920
aa(lp2921
Vtaiwan
p2922
aVtaiwanese
p2923
aa(lp2924
Vtak
p2925
aVtaak
p2926
aVtaek
p2927
aa(lp2928
Vtaka
p2929
aVtakasago
p2930
aa(lp2931
Vtakiomi
p2932
aVomi
p2933
aa(lp2934
Vtam
p2935
aVdam
p2936
aVtdam
p2937
aa(lp2938
Vtama
p2939
aVtatami
p2940
aVam
p2941
aa(lp2942
Vtamatar
p2943
aVtamater
p2944
aa(lp2945
Vtamerind
p2946
aVtamerine
p2947
aa(lp2948
Vtan
p2949
aVpaitan
p2950
aa(lp2951
Vtandoori
p2952
aVtandoor
p2953
aa(lp2954
Vtanqueray
p2955
aVtangueray
p2956
aa(lp2957
Vtaouk
p2958
aVtawouk
p2959
aVtawook
p2960
aa(lp2961
Vtappuri
p2962
aVapp
p2963
aa(lp2964
Vtartar
p2965
aVtartare
p2966
aVtar
p2967
aVtartart
p2968
aVtatar
p2969
aa(lp2970
Vtartine
p2971
aVrotie
p2972
aVrti
p2973
aVrtie
p2974
aa(lp2975
Vtartufo
p2976
aVtarufo
p2977
aa(lp2978
Vtasca
p2979
aVtascante
p2980
aa(lp2981
Vtater
p2982
aVtarter
p2983
aVtatter
p2984
aa(lp2985
Vtatsumigura
p2986
aVtatsumugura
p2987
aa(lp2988
Vtauce
p2989
aVtaucu
p2990
aa(lp2991
Vtaugeh
p2992
aVtauge
p2993
aa(lp2994
Vte
p2995
aVhite
p2996
aa(lp2997
Vteh
p2998
aVteeh
p2999
aa(lp3000
Vteler
p3001
aVteller
p3002
aa(lp3003
Vtempura
p3004
aVtenpura
p3005
aa(lp3006
Vtenshinhan
p3007
aVtenshin
p3008
aa(lp3009
Vteo
p3010
aVteoe
p3011
aa(lp3012
Vteochaw
p3013
aVteochow
p3014
aVteocheow
p3015
aa(lp3016
Vtepong
p3017
aVtepung
p3018
aa(lp3019
Vtex
p3020
aVmex
p3021
aa(lp3022
Vthod
p3023
aVphod
p3024
aa(lp3025
Vthoma
p3026
aVthomas
p3027
aa(lp3028
Vthosai
p3029
aVdosa
p3030
aVdosai
p3031
aVtosai
p3032
aa(lp3033
Vthringer
p3034
aVthuringer
p3035
aa(lp3036
Vtht
p3037
aVhp
p3038
aVthp
p3039
aa(lp3040
Vti
p3041
aVtiu
p3042
aVtieu
p3043
aa(lp3044
Vtien
p3045
aVtientsin
p3046
aa(lp3047
Vtiew
p3048
aVtiow
p3049
aa(lp3050
Vtiganite
p3051
aVtiganit
p3052
aa(lp3053
Vtikka
p3054
aVtikkas
p3055
aVtika
p3056
aVtikaa
p3057
aa(lp3058
Vting
p3059
aVtingzai
p3060
aa(lp3061
Vtitek
p3062
aVtitik
p3063
aa(lp3064
Vtm
p3065
aVthm
p3066
aa(lp3067
Vtng
p3068
aVfng
p3069
aa(lp3070
Vtoastie
p3071
aVtoastle
p3072
aVtoa
p3073
aa(lp3074
Vtod
p3075
aVtord
p3076
aVsod
p3077
aVsord
p3078
aa(lp3079
Vtoey
p3080
aVhoey
p3081
aVtoei
p3082
aVtuey
p3083
aa(lp3084
Vtofu
p3085
aVtoufu
p3086
aa(lp3087
Vtok
p3088
aVtuk
p3089
aa(lp3090
Vtokujyou
p3091
aVjyo
p3092
aVjyou
p3093
aa(lp3094
Vtokumori
p3095
aVtoku
p3096
aa(lp3097
Vtoo
p3098
aVgoo
p3099
aa(lp3100
Vtot
p3101
aVtotchos
p3102
aVtott
p3103
aa(lp3104
Vtriacca
p3105
aVtriaacca
p3106
aa(lp3107
Vtrip
p3108
aVtripp
p3109
aa(lp3110
Vtrippin
p3111
aVtripplin
p3112
aa(lp3113
Vtrofie
p3114
aVtrofiette
p3115
aa(lp3116
Vtroooper
p3117
aVtrooper
p3118
aa(lp3119
Vtropicale
p3120
aVtropica
p3121
aa(lp3122
Vtrotter
p3123
aVtroter
p3124
aa(lp3125
Vtruffle
p3126
aVtruffl
p3127
aa(lp3128
Vtsumami
p3129
aVtsunami
p3130
aa(lp3131
Vtua
p3132
aVthua
p3133
aa(lp3134
Vtufo
p3135
aVtulfo
p3136
aa(lp3137
Vturmeric
p3138
aVtumeric
p3139
aa(lp3140
Vtutti
p3141
aVtutty
p3142
aa(lp3143
Vty
p3144
aVry
p3145
aa(lp3146
Vuar
p3147
aVcar
p3148
aa(lp3149
Vum
p3150
aVumbab
p3151
aa(lp3152
Vumamu
p3153
aVumanu
p3154
aa(lp3155
Vun
p3156
aVfungo
p3157
aa(lp3158
Vuthappam
p3159
aVuttapam
p3160
aVuttappam
p3161
aVutthappam
p3162
aa(lp3163
Vvadai
p3164
aVvada
p3165
aVwada
p3166
aVadai
p3167
aa(lp3168
Vvale
p3169
aVwale
p3170
aa(lp3171
Vvalencia
p3172
aVvalenciana
p3173
aa(lp3174
Vvalpolicella
p3175
aVvalpolicello
p3176
aa(lp3177
Vvavasour
p3178
aVvavasor
p3179
aa(lp3180
Vvelout
p3181
aVveloute
p3182
aa(lp3183
Vverde
p3184
aVverd
p3185
aa(lp3186
Vverdejo
p3187
aVverdeja
p3188
aa(lp3189
Vverduce
p3190
aVverdurce
p3191
aa(lp3192
Vvermicelli
p3193
aVvermincelli
p3194
aa(lp3195
Vvieille
p3196
aVvielle
p3197
aa(lp3198
Vvigne
p3199
aVvign
p3200
aa(lp3201
Vwahn
p3202
aVwahin
p3203
aa(lp3204
Vwan
p3205
aVwhan
p3206
aa(lp3207
Vwang
p3208
aVwong
p3209
aa(lp3210
Vwanton
p3211
aVwonton
p3212
aa(lp3213
Vwarak
p3214
aVwarek
p3215
aa(lp3216
Vwat
p3217
aVwau
p3218
aa(lp3219
Vweek
p3220
aVweekend
p3221
aa(lp3222
Vwestmalle
p3223
aVwesrmalle
p3224
aVmalle
p3225
aVmelle
p3226
aa(lp3227
Vwh
p3228
aVwho
p3229
aa(lp3230
Vwilt
p3231
aVwilted
p3232
aa(lp3233
Vwire
p3234
aVhopwired
p3235
aa(lp3236
Vwolfberrie
p3237
aVwolfberri
p3238
aa(lp3239
Vwood
p3240
aVwoody
p3241
aa(lp3242
Vwoon
p3243
aVvoon
p3244
aa(lp3245
Vxao
p3246
aVxa
p3247
aa(lp3248
Vxin
p3249
aVsim
p3250
aVjiu
p3251
aVxiu
p3252
aVxia
p3253
aVxim
p3254
aa(lp3255
Vyagon
p3256
aVyangon
p3257
aa(lp3258
Vyai
p3259
aVhat
p3260
aVyat
p3261
aVyad
p3262
aa(lp3263
Vyaki
p3264
aVbatayaki
p3265
aa(lp3266
Vyangnyeom
p3267
aVyangnyeon
p3268
aVsoyangnyeom
p3269
aa(lp3270
Vyangnyum
p3271
aVyangnoum
p3272
aa(lp3273
Vyeng
p3274
aVyeung
p3275
aa(lp3276
Vyogurt
p3277
aVyoghurt
p3278
aa(lp3279
Vyong
p3280
aVfuyong
p3281
aVfurong
p3282
aa(lp3283
Vyoshikiri
p3284
aVyashikiri
p3285
aa(lp3286
Vyuja
p3287
aVyuji
p3288
aa(lp3289
Vyum
p3290
aVyom
p3291
aa(lp3292
Vzhen
p3293
aVzhe
p3294
aa(lp3295
Vzhou
p3296
aVchow
p3297
aVchou
p3298
aa(lp3299
Vzhu
p3300
aVzhuang
p3301
aa(lp3302
Vzuppa
p3303
aVzuppe
p3304
aa(lp3305
Vzuppetta
p3306
aVzupetta
p3307
aa.