(lp0
(lp1
Vaba
p2
aVabba
p3
aa(lp4
Vabsolut
p5
aVabsolute
p6
aa(lp7
Vadige
p8
aVadigo
p9
aa(lp10
Vadraki
p11
aVadrki
p12
aVadhraki
p13
aVadaraki
p14
aa(lp15
Vadventure
p16
aVadvanture
p17
aa(lp18
Vafrica
p19
aVafrican
p20
aa(lp21
Vage dashi
p22
aVagedashi
p23
aVdashitofu
p24
aa(lp25
Vaglio
p26
aVolio
p27
aValio
p28
aVoilo
p29
aVoglio
p30
aVagilo
p31
aVagi
p32
aVagile
p33
aVlio
p34
aVaglo
p35
aVoilio
p36
aa(lp37
Vahumado
p38
aVahummado
p39
aa(lp40
Vai yu
p41
aVaiyu
p42
aa(lp43
Vajin
p44
aVbajin
p45
aa(lp46
Vaka ebi
p47
aVakaebi
p48
aa(lp49
Val
p50
aVsalvia
p51
aa(lp52
Valbarino
p53
aValbario
p54
aValbarina
p55
aa(lp56
Valbondigas
p57
aValbndigas
p58
aa(lp59
Valcohol
p60
aValcoholic
p61
aa(lp62
Vale
p63
aVpale
p64
aa(lp65
Valigote
p66
aValigot
p67
aa(lp68
Vall aragosta
p69
aVallaragosta
p70
aa(lp71
Vallepy
p72
aVallepey
p73
aa(lp74
Valmerita
p75
aValmertita
p76
aa(lp77
Valoe vera
p78
aValoevera
p79
aa(lp80
Valska
p81
aVlska
p82
aa(lp83
Vamarone
p84
aVamorone
p85
aa(lp86
Vamatriciana
p87
aVmatriciana
p88
aVamatrician
p89
aa(lp90
Vande
p91
aVanderson
p92
aa(lp93
Vang
p94
aVkachang
p95
aVpng
p96
aVbangket
p97
aVbangkit
p98
aa(lp99
Vangelica
p100
aVangelic
p101
aa(lp102
Vapi
p103
aVati
p104
aVhati
p105
aa(lp106
Varaye
p107
aVarayess
p108
aVarraye
p109
aa(lp110
Varrabbiata
p111
aVarrabiata
p112
aVarriabiata
p113
aa(lp114
Varrabiatta
p115
aVarabiatta
p116
aa(lp117
Vartic
p118
aVarctic
p119
aa(lp120
Varugula
p121
aVarugulo
p122
aa(lp123
Varunachal
p124
aVarunachala
p125
aa(lp126
Vassam
p127
aVasam
p128
aVasem
p129
aa(lp130
Vasti
p131
aVdasti
p132
aVdsti
p133
aVdti
p134
aa(lp135
Vatlantic
p136
aValantic
p137
aa(lp138
Vatsu
p139
aVatsuage
p140
aVtatsuta
p141
aa(lp142
Vatta
p143
aVrattani
p144
aa(lp145
Vattap
p146
aVatap
p147
aa(lp148
Vaugus
p149
aVanugus
p150
aa(lp151
Vavec
p152
aVave
p153
aa(lp154
Vavola
p155
aVdavola
p156
aVdavila
p157
aa(lp158
Vbaba ganoush
p159
aVbabaganoush
p160
aa(lp161
Vbaby back
p162
aVbabyback
p163
aa(lp164
Vbaccal
p165
aVbaccala
p166
aa(lp167
Vback rib
p168
aVbackrib
p169
aVbackribs
p170
aa(lp171
Vbai
p172
aVnai
p173
aa(lp174
Vbai l
p175
aVbail
p176
aa(lp177
Vbaingan
p178
aVbaigan
p179
aVbangan
p180
aVbhaigan
p181
aVbaigain
p182
aa(lp183
Vbajji
p184
aVbhajji
p185
aa(lp186
Vbake
p187
aVbaked
p188
aa(lp189
Vbakwan
p190
aVbakwang
p191
aa(lp192
Vbal
p193
aVgal
p194
aVdakbal
p195
aa(lp196
Vbaldi
p197
aVbayildi
p198
aVbaildi
p199
aa(lp200
Vballoon
p201
aVballonn
p202
aa(lp203
Vbam
p204
aVfam
p205
aa(lp206
Vbananutella
p207
aVbananautella
p208
aa(lp209
Vbanarasi
p210
aVbenarasi
p211
aa(lp212
Vbandung
p213
aVbandong
p214
aa(lp215
Vbap
p216
aVbab
p217
aa(lp218
Vbara
p219
aVbhara
p220
aa(lp221
Vbara chirashi
p222
aVbarachirashi
p223
aa(lp224
Vbarcardi
p225
aVbarcadi
p226
aa(lp227
Vbarfi
p228
aVburfi
p229
aa(lp230
Vbaro
p231
aVbarota
p232
aa(lp233
Vbasmati
p234
aVbasmatic
p235
aa(lp236
Vbatang
p237
aVbatong
p238
aa(lp239
Vbatata
p240
aVbata
p241
aa(lp242
Vbean curd
p243
aVbeancurd
p244
aa(lp245
Vbean sprout
p246
aVbeansprout
p247
aa(lp248
Vbearnaise
p249
aVbernaise
p250
aa(lp251
Vbeat
p252
aVbeaten
p253
aa(lp254
Vbeaunoy
p255
aVbeanunoy
p256
aa(lp257
Vbee hoon
p258
aVbeehoon
p259
aVmeehoon
p260
aa(lp261
Vbegam
p262
aVbegami
p263
aa(lp264
Vbeij
p265
aVbeijing
p266
aa(lp267
Vbelacan
p268
aVbelachan
p269
aVblachan
p270
aVbalachan
p271
aVbalacan
p272
aa(lp273
Vbelado
p274
aVbalado
p275
aa(lp276
Vbernadus
p277
aVbernardus
p278
aa(lp279
Vbhaji
p280
aVbhaaji
p281
aVbhajia
p282
aVbhajiyas
p283
aVbhajis
p284
aVbhajiya
p285
aa(lp286
Vbhalla
p287
aVballa
p288
aa(lp289
Vbharta
p290
aVbhartha
p291
aVbartha
p292
aVburtha
p293
aVbhartah
p294
aVbhrta
p295
aa(lp296
Vbharwan
p297
aVbharwa
p298
aa(lp299
Vbhatura
p300
aVbatura
p301
aVbattura
p302
aVbhature
p303
aVbhattura
p304
aa(lp305
Vbhindi
p306
aVbhandi
p307
aVbhendi
p308
aa(lp309
Vbhoona
p310
aVboona
p311
aa(lp312
Vbhujia
p313
aVbhugia
p314
aa(lp315
Vbhurji
p316
aVburji
p317
aVbhuriji
p318
aVbhurjiya
p319
aa(lp320
Vbi
p321
aVbim
p322
aa(lp323
Vbi bim
p324
aVbibim
p325
aa(lp326
Vbi bim bap
p327
aVbibimbap
p328
aa(lp329
Vbi hun
p330
aVbihun
p331
aa(lp332
Vbian
p333
aVqian
p334
aa(lp335
Vbicergourd
p336
aVbitergourd
p337
aa(lp338
Vbillis
p339
aVbill
p340
aVbilli
p341
aa(lp342
Vbindi
p343
aVbindy
p344
aa(lp345
Vbird nest
p346
aVbirdnest
p347
aa(lp348
Vbiryani
p349
aVberyani
p350
aa(lp351
Vbitter
p352
aVitter
p353
aa(lp354
Vbitter gourd
p355
aVbittergourd
p356
aa(lp357
Vbitter ground
p358
aVbitterground
p359
aVbittergroud
p360
aa(lp361
Vblack pepper
p362
aVblackpepper
p363
aa(lp364
Vblooi
p365
aVlooi
p366
aa(lp367
Vblt
p368
aVbat
p369
aa(lp370
Vblue berry
p371
aVblueberry
p372
aa(lp373
Vbn
p374
aVsn
p375
aa(lp376
Vbnh
p377
aVbng
p378
aVhnh
p379
aa(lp380
Vbo lo
p381
aVbolo
p382
aa(lp383
Vbolly
p384
aVwooly
p385
aVwolly
p386
aa(lp387
Vbom
p388
aVbomp
p389
aa(lp390
Vbooki
p391
aVbokki
p392
aa(lp393
Vboondi
p394
aVboondhi
p395
aa(lp396
Vborgogno
p397
aVbargogno
p398
aa(lp399
Vbosco
p400
aVbosc
p401
aa(lp402
Vboshi
p403
aVbushi
p404
aa(lp405
Vbourbon
p406
aVurbon
p407
aa(lp408
Vbourguignon
p409
aVbourguigon
p410
aVbourguignonne
p411
aa(lp412
Vbp
p413
aVbd
p414
aVbc
p415
aa(lp416
Vbratwurst
p417
aVbratswurst
p418
aa(lp419
Vbrawnz
p420
aVbrawn
p421
aa(lp422
Vbreadcrumb
p423
aVbreadcrumbed
p424
aa(lp425
Vbrekkie
p426
aVbrek
p427
aa(lp428
Vbrian
p429
aVbrion
p430
aa(lp431
Vbriyani
p432
aVbiriyani
p433
aa(lp434
Vbrunello
p435
aVbrunelo
p436
aa(lp437
Vbu
p438
aVbullak
p439
aVbulnak
p440
aa(lp441
Vbuah
p442
aVbuahan
p443
aa(lp444
Vbuco
p445
aVbucco
p446
aa(lp447
Vbud
p448
aVbudsand
p449
aa(lp450
Vbudae
p451
aVbudoe
p452
aa(lp453
Vbuddha
p454
aVbudha
p455
aa(lp456
Vbufala
p457
aVbufola
p458
aa(lp459
Vbuff
p460
aVbuffaloa
p461
aa(lp462
Vbulgogi
p463
aVbulgolgi
p464
aa(lp465
Vbull frog
p466
aVbullfrog
p467
aa(lp468
Vbumbu
p469
aVbambu
p470
aa(lp471
Vburani
p472
aVbhurani
p473
aa(lp474
Vbutterfly
p475
aVbuttefly
p476
aa(lp477
Vcabonara
p478
aVbonara
p479
aa(lp480
Vcaesar
p481
aVceasar
p482
aVcaeser
p483
aVcesar
p484
aVceaser
p485
aa(lp486
Vcahor
p487
aVcohor
p488
aa(lp489
Vcai po
p490
aVcai pu
p491
aVcai poh
p492
aVcaipo
p493
aVcaipoh
p494
aVcaipu
p495
aa(lp496
Vcai xin
p497
aVcaixin
p498
aa(lp499
Vcalabrese
p500
aVcalebrese
p501
aa(lp502
Vcampur
p503
aVchampur
p504
aa(lp505
Vcanap
p506
aVcanape
p507
aa(lp508
Vcanard
p509
aVcarnard
p510
aa(lp511
Vcao
p512
aVzao
p513
aa(lp514
Vcapesante
p515
aVcappesante
p516
aa(lp517
Vcapi
p518
aVcapt
p519
aa(lp520
Vcappricciosa
p521
aVcarpricciosa
p522
aa(lp523
Vcappuccino
p524
aVcappucino
p525
aa(lp526
Vcarabnero
p527
aVcarabinero
p528
aa(lp529
Vcarnivore
p530
aVcarnivorre
p531
aa(lp532
Vcarpaccio
p533
aVcapaccio
p534
aa(lp535
Vcarrozza
p536
aVcarozza
p537
aa(lp538
Vcasa
p539
aVcata
p540
aa(lp541
Vcasareccio
p542
aVcasereccio
p543
aa(lp544
Vcashew nut
p545
aVcashewnut
p546
aa(lp547
Vcasserole
p548
aVcasseroole
p549
aa(lp550
Vcastatine
p551
aVcostatine
p552
aa(lp553
Vcastilla
p554
aVcastillo
p555
aVcastila
p556
aVcastela
p557
aa(lp558
Vcaypot
p559
aVcraypot
p560
aa(lp561
Vcedar
p562
aVcedal
p563
aa(lp564
Vcesare
p565
aVcaesare
p566
aa(lp567
Vcha shu
p568
aVchashu
p569
aa(lp570
Vcha soba
p571
aVchasoba
p572
aa(lp573
Vchaat
p574
aVchat
p575
aVchatt
p576
aa(lp577
Vchablisienne
p578
aVchablisinne
p579
aa(lp580
Vcham
p581
aVchamchi
p582
aa(lp583
Vchamomile
p584
aVcamomile
p585
aa(lp586
Vchampione
p587
aVpione
p588
aVchampinone
p589
aa(lp590
Vchana
p591
aVchanna
p592
aVchann
p593
aVchaana
p594
aVchanma
p595
aa(lp596
Vchapa
p597
aVchapu
p598
aa(lp599
Vchapati
p600
aVchapathi
p601
aVchappathi
p602
aVchappati
p603
aVchapatti
p604
aa(lp605
Vchar siew
p606
aVcharsiew
p607
aa(lp608
Vcharcuterie
p609
aVcharcuteris
p610
aa(lp611
Vchateau
p612
aVchteau
p613
aa(lp614
Vchatpata
p615
aVchapata
p616
aa(lp617
Vchawan mushi
p618
aVchawanmushi
p619
aa(lp620
Vchee
p621
aVchwee
p622
aa(lp623
Vchem
p624
aVchep
p625
aVchepala
p626
aa(lp627
Vchemeen
p628
aVcheemeen
p629
aa(lp630
Vcheo
p631
aVchio
p632
aa(lp633
Vchettinad
p634
aVchettinadu
p635
aVchettinadul
p636
aa(lp637
Vchevre
p638
aVchvre
p639
aa(lp640
Vchew
p641
aVcheow
p642
aVchoew
p643
aa(lp644
Vchiang mai
p645
aVchiangmai
p646
aa(lp647
Vchigae
p648
aVchigay
p649
aVchegay
p650
aa(lp651
Vchilean
p652
aVchelean
p653
aa(lp654
Vchilli
p655
aVchili
p656
aa(lp657
Vchippy
p658
aVchirpy
p659
aa(lp660
Vchirashi
p661
aVshirashi
p662
aa(lp663
Vchirashi don
p664
aVchirashidon
p665
aa(lp666
Vchoc
p667
aVchocoate
p668
aa(lp669
Vchocolate
p670
aVchoco
p671
aa(lp672
Vchole
p673
aVcholey
p674
aVchholey
p675
aa(lp676
Vchong q
p677
aVchongq
p678
aa(lp679
Vchop suey
p680
aVchopsuey
p681
aa(lp682
Vchopsey
p683
aVchopseuy
p684
aa(lp685
Vchownki
p686
aVcgonnki
p687
aVchonnki
p688
aa(lp689
Vchoy sum
p690
aVchoysum
p691
aa(lp692
Vchrysantheum
p693
aVchrysantemum
p694
aVchrysanthmum
p695
aa(lp696
Vchu
p697
aVchur
p698
aa(lp699
Vchu chee
p700
aVchuchee
p701
aa(lp702
Vchuleta
p703
aVchuletas
p704
aa(lp705
Vchuletn
p706
aVchuleton
p707
aa(lp708
Vchulop
p709
aVchullop
p710
aa(lp711
Vchye poh
p712
aVchyepoh
p713
aa(lp714
Vcinsault
p715
aVcinsoult
p716
aa(lp717
Vcipolla
p718
aVcipolle
p719
aVcipole
p720
aa(lp721
Vclair
p722
aVsinclair
p723
aa(lp724
Vclaw
p725
aVclaws
p726
aa(lp727
Vclay pot
p728
aVclaypot
p729
aa(lp730
Vclippper
p731
aVclipper
p732
aa(lp733
Vcola
p734
aVcoca
p735
aa(lp736
Vcold press
p737
aVcoldpress
p738
aa(lp739
Vcoleslaw
p740
aVcolesaw
p741
aa(lp742
Vcolle
p743
aVtollo
p744
aVtolle
p745
aa(lp746
Vcon carne
p747
aVconcarne
p748
aa(lp749
Vconsomme
p750
aVconsamme
p751
aVconsomms
p752
aa(lp753
Vcordon
p754
aVcorden
p755
aa(lp756
Vcordycep
p757
aVcordcep
p758
aa(lp759
Vcostolette
p760
aVcostoletta
p761
aa(lp762
Vcotelette
p763
aVcotolette
p764
aa(lp765
Vcous cous
p766
aVcouscous
p767
aa(lp768
Vcr
p769
aVcor
p770
aa(lp771
Vcrema
p772
aVcreama
p773
aa(lp774
Vcress
p775
aVcrest
p776
aa(lp777
Vcriss
p778
aVcross
p779
aa(lp780
Vcriss cut
p781
aVcrisscut
p782
aa(lp783
Vcrme
p784
aVcreme
p785
aa(lp786
Vcroduette
p787
aVcropuette
p788
aa(lp789
Vcroix
p790
aVcroixe
p791
aa(lp792
Vcroque
p793
aVcroique
p794
aVcroquet
p795
aVcrouque
p796
aa(lp797
Vcurd
p798
aVcurb
p799
aa(lp800
Vcuric
p801
aVcurico
p802
aa(lp803
Vcuttefish
p804
aVcutlefish
p805
aa(lp806
Vcuttlefish
p807
aVcuttle
p808
aa(lp809
Vdagging
p810
aVdagg
p811
aa(lp812
Vdaging
p813
aVdag
p814
aa(lp815
Vdahi
p816
aVdahl
p817
aVdhahi
p818
aa(lp819
Vdal
p820
aVdaal
p821
aVdala
p822
aa(lp823
Vdal makhani
p824
aVdalmakhani
p825
aa(lp826
Vdan dan
p827
aVdandan
p828
aa(lp829
Vdashi maki
p830
aVdashimaki
p831
aa(lp832
Vde fra
p833
aVdefra
p834
aa(lp835
Vdead
p836
aVdeadguy
p837
aa(lp838
Vdemi glace
p839
aVdemiglace
p840
aa(lp841
Vdeow
p842
aVdeaw
p843
aa(lp844
Vdeschut
p845
aVdeschute
p846
aa(lp847
Vdhal
p848
aVdhai
p849
aa(lp850
Vdhaniya
p851
aVdhaniye
p852
aVdaniya
p853
aa(lp854
Vdie
p855
aVdine
p856
aa(lp857
Vdieh
p858
aVdieu
p859
aa(lp860
Vdim sum
p861
aVdimsum
p862
aa(lp863
Vdingri
p864
aVdhingri
p865
aVdinghri
p866
aa(lp867
Vdo piaza
p868
aVdopiaza
p869
aa(lp870
Vdo pyaza
p871
aVdopyaza
p872
aa(lp873
Vdoc
p874
aVdop
p875
aa(lp876
Vdoen jang
p877
aVdoenjang
p878
aVdwenjang
p879
aVdoenajang
p880
aa(lp881
Vdoenjang jjigae
p882
aVdoenjangjjigae
p883
aa(lp884
Vdolma
p885
aVdolmasi
p886
aa(lp887
Vdong po
p888
aVdongpo
p889
aa(lp890
Vdongtae
p891
aVdongte
p892
aa(lp893
Vdoo
p894
aVdooby
p895
aa(lp896
Vdough stick
p897
aVdoughstick
p898
aa(lp899
Vdragon fruit
p900
aVdragonfruit
p901
aVdrangonfruit
p902
aa(lp903
Vdrumette
p904
aVdrumett
p905
aa(lp906
Vdrumlett
p907
aVdrumlette
p908
aVdrumletts
p909
aa(lp910
Vdumpl
p911
aVdumpling
p912
aa(lp913
Vdunkel
p914
aVdunke
p915
aa(lp916
Vdupbab
p917
aVdupbap
p918
aVdup
p919
aa(lp920
Vdwaeji
p921
aVdoaeji
p922
aVdoeji
p923
aVdoeaji
p924
aa(lp925
Vearl
p926
aVearly
p927
aa(lp928
Vearl grey
p929
aVearlgrey
p930
aa(lp931
Vearthen
p932
aVearthern
p933
aa(lp934
Vee
p935
aVyee
p936
aa(lp937
Vee fu
p938
aVeefu
p939
aa(lp940
Veel
p941
aVeeel
p942
aa(lp943
Vegglet
p944
aVegglette
p945
aa(lp946
Veihire
p947
aVehire
p948
aa(lp949
Venfermera
p950
aVenfermer
p951
aa(lp952
Veo
p953
aVseol
p954
aVseot
p955
aa(lp956
Ves
p957
aVjessie
p958
aa(lp959
Vespanola
p960
aVespaola
p961
aa(lp962
Vessence
p963
aVesssence
p964
aa(lp965
Vestaphe
p966
aVestephe
p967
aa(lp968
Vetienne
p969
aVeitienne
p970
aa(lp971
Vew
p972
aVeew
p973
aVyew
p974
aVeiw
p975
aVewe
p976
aVpriew
p977
aVlew
p978
aVaew
p979
aVeiew
p980
aa(lp981
Vfa
p982
aVfak
p983
aVfag
p984
aa(lp985
Vfai dang
p986
aVfaidang
p987
aa(lp988
Vfarang
p989
aVfalang
p990
aa(lp991
Vfaugere
p992
aVfauger
p993
aa(lp994
Vfeed
p995
aVfed
p996
aa(lp997
Vfermented
p998
aVferment
p999
aa(lp1000
Vferraro
p1001
aVferrero
p1002
aa(lp1003
Vfettu
p1004
aVfettuce
p1005
aa(lp1006
Vfettuccine
p1007
aVfettucine
p1008
aVfettucini
p1009
aa(lp1010
Vfever tree
p1011
aVfevertree
p1012
aa(lp1013
Vfiletto
p1014
aVfilitto
p1015
aa(lp1016
Vfilleto
p1017
aVletto
p1018
aVfilletto
p1019
aa(lp1020
Vfilleto di
p1021
aVfilletodi
p1022
aa(lp1023
Vfiorentina
p1024
aVflorentina
p1025
aVfoorentina
p1026
aa(lp1027
Vfishing
p1028
aVfishin
p1029
aa(lp1030
Vfitter
p1031
aVfilter
p1032
aa(lp1033
Vfizzy
p1034
aVfrizzy
p1035
aa(lp1036
Vflambed
p1037
aVflambeed
p1038
aa(lp1039
Vflat bread
p1040
aVflatbread
p1041
aa(lp1042
Vfloral
p1043
aVmonofloral
p1044
aVpolyfloral
p1045
aa(lp1046
Vfoie
p1047
aVfois
p1048
aa(lp1049
Vfoo
p1050
aVfo
p1051
aa(lp1052
Vfoong
p1053
aVloong
p1054
aa(lp1055
Vformaggi
p1056
aVformaggio
p1057
aVformagi
p1058
aVformagg
p1059
aVformagio
p1060
aa(lp1061
Vfoul
p1062
aVful
p1063
aa(lp1064
Vfra
p1065
aVfranco
p1066
aa(lp1067
Vfrazi
p1068
aVfrezi
p1069
aVfraizi
p1070
aa(lp1071
Vfreeze
p1072
aVfreezer
p1073
aa(lp1074
Vfrittata
p1075
aVfritata
p1076
aa(lp1077
Vfritto
p1078
aVfritti
p1079
aa(lp1080
Vfrog leg
p1081
aVfrogleg
p1082
aa(lp1083
Vfrutti
p1084
aVfruitti
p1085
aa(lp1086
Vfu rong
p1087
aVfu yong
p1088
aVfuyong
p1089
aVfurong
p1090
aa(lp1091
Vfudge
p1092
aVfudgey
p1093
aa(lp1094
Vfugu mirin
p1095
aVfugumirin
p1096
aa(lp1097
Vfuisse
p1098
aVfuiss
p1099
aa(lp1100
Vfume
p1101
aVfme
p1102
aa(lp1103
Vfunghi
p1104
aVfungh
p1105
aVfunghai
p1106
aa(lp1107
Vfurai
p1108
aVfuri
p1109
aa(lp1110
Vfusilli
p1111
aVfusili
p1112
aa(lp1113
Vfuto maki
p1114
aVfutomaki
p1115
aa(lp1116
Vgae
p1117
aVdae
p1118
aVdaeji
p1119
aVyukge
p1120
aVyukke
p1121
aVyuhke
p1122
aVyukgae
p1123
aa(lp1124
Vgaeng
p1125
aVkaeng
p1126
aVkaneng
p1127
aa(lp1128
Vgalet
p1129
aVjalet
p1130
aa(lp1131
Vgalletto
p1132
aVgaletto
p1133
aa(lp1134
Vgallo
p1135
aVgalo
p1136
aa(lp1137
Vgamba
p1138
aVgambas
p1139
aa(lp1140
Vgang jeong
p1141
aVgangjeong
p1142
aa(lp1143
Vganoush
p1144
aVghanoush
p1145
aVganus
p1146
aVganush
p1147
aa(lp1148
Vgegrillte
p1149
aVgegrilltem
p1150
aa(lp1151
Vghanouj
p1152
aVghanouji
p1153
aa(lp1154
Vgi
p1155
aVch
p1156
aVci
p1157
aa(lp1158
Vgilafi
p1159
aVgilaffi
p1160
aa(lp1161
Vgin jo
p1162
aVginjo
p1163
aVdaiginjou
p1164
aa(lp1165
Vgindara
p1166
aVgintara
p1167
aa(lp1168
Vginger
p1169
aVginnger
p1170
aa(lp1171
Vginkgo
p1172
aVginko
p1173
aa(lp1174
Vgiulo
p1175
aVgiulio
p1176
aa(lp1177
Vglenfiddich
p1178
aVglenhiddich
p1179
aa(lp1180
Vgobi
p1181
aVgobhi
p1182
aVghobi
p1183
aa(lp1184
Vgoby
p1185
aVgorby
p1186
aa(lp1187
Vgoddess
p1188
aVgoddness
p1189
aa(lp1190
Vgodungeo
p1191
aVgodeungeo
p1192
aa(lp1193
Vgoh
p1194
aVgou
p1195
aa(lp1196
Vgoi
p1197
aVxoi
p1198
aa(lp1199
Vgol
p1200
aVgul
p1201
aa(lp1202
Vgold rush
p1203
aVgoldrush
p1204
aa(lp1205
Vgom tang
p1206
aVgomtang
p1207
aa(lp1208
Vgoma ae
p1209
aVgomaae
p1210
aa(lp1211
Vgong bao
p1212
aVgongbao
p1213
aa(lp1214
Vgong gong
p1215
aVgonggong
p1216
aa(lp1217
Vgoreng
p1218
aVgeoreng
p1219
aVgoren
p1220
aa(lp1221
Vgosht
p1222
aVcosht
p1223
aa(lp1224
Vgoujon
p1225
aVgourjon
p1226
aa(lp1227
Vgourd
p1228
aVgrourd
p1229
aa(lp1230
Vgra tiem
p1231
aVgratien
p1232
aVgratiem
p1233
aa(lp1234
Vgrain fed
p1235
aVgrainfed
p1236
aa(lp1237
Vgrandmere
p1238
aVgrandmre
p1239
aa(lp1240
Vgrappao
p1241
aVgrappa
p1242
aVgrappo
p1243
aa(lp1244
Vgrass jelly
p1245
aVgrassjelly
p1246
aa(lp1247
Vgrated
p1248
aVgrate
p1249
aa(lp1250
Vgravlax
p1251
aVgraviax
p1252
aa(lp1253
Vgrey
p1254
aVgray
p1255
aa(lp1256
Vgrill
p1257
aVchargrill
p1258
aa(lp1259
Vgruyere
p1260
aVgruyre
p1261
aa(lp1262
Vguchi
p1263
aVgucchi
p1264
aa(lp1265
Vguinness
p1266
aVguiness
p1267
aa(lp1268
Vgula
p1269
aVguala
p1270
aa(lp1271
Vgulab
p1272
aVgulad
p1273
aVgulaab
p1274
aa(lp1275
Vgullstan
p1276
aVgulistan
p1277
aa(lp1278
Vgulzaar
p1279
aVguizaar
p1280
aa(lp1281
Vgungpo
p1282
aVgongpo
p1283
aa(lp1284
Vguo tie
p1285
aVguotie
p1286
aa(lp1287
Vgyu
p1288
aVryu
p1289
aVrayu
p1290
aVrayo
p1291
aa(lp1292
Vgyu niku
p1293
aVgyuniku
p1294
aa(lp1295
Vha noi
p1296
aVhanoi
p1297
aa(lp1298
Vhaemool
p1299
aVhaemooi
p1300
aa(lp1301
Vhagen
p1302
aVhaagen
p1303
aa(lp1304
Vhai
p1305
aVxai
p1306
aa(lp1307
Vhamachi
p1308
aVama
p1309
aa(lp1310
Vhand cut
p1311
aVhandcut
p1312
aa(lp1313
Vhappiness
p1314
aVhappine
p1315
aa(lp1316
Vhar
p1317
aVha
p1318
aVhak
p1319
aa(lp1320
Vhara bara
p1321
aVharabara
p1322
aa(lp1323
Vhara bhara
p1324
aVharabhara
p1325
aa(lp1326
Vharadhaniaya
p1327
aVharadhania
p1328
aa(lp1329
Vhariyali
p1330
aVharyali
p1331
aa(lp1332
Vharra
p1333
aVharrah
p1334
aa(lp1335
Vhash brown
p1336
aVhashbrown
p1337
aa(lp1338
Vhawke
p1339
aVhawk
p1340
aa(lp1341
Vhazarvi
p1342
aVhazarwi
p1343
aa(lp1344
Vhemingway
p1345
aVhemmingway
p1346
aa(lp1347
Vherumetto
p1348
aVherumertto
p1349
aa(lp1350
Vhiang
p1351
aVhiong
p1352
aVhlong
p1353
aa(lp1354
Vhire katsu
p1355
aVhirekatsu
p1356
aa(lp1357
Vhiyayakko
p1358
aVhiyayako
p1359
aa(lp1360
Vho ho
p1361
aVhoho
p1362
aa(lp1363
Vhocus
p1364
aVpocus
p1365
aa(lp1366
Vhoisin
p1367
aVhoison
p1368
aa(lp1369
Vhokey
p1370
aVpokey
p1371
aa(lp1372
Vhokien
p1373
aVhockien
p1374
aa(lp1375
Vhola
p1376
aVhula
p1377
aa(lp1378
Vhome cook
p1379
aVhomecook
p1380
aa(lp1381
Vhome town
p1382
aVhometown
p1383
aa(lp1384
Vhoney dew
p1385
aVhoneydew
p1386
aa(lp1387
Vhong kong
p1388
aVhongkong
p1389
aa(lp1390
Vhonjyozo
p1391
aVhonjozo
p1392
aa(lp1393
Vhor fun
p1394
aVhorfun
p1395
aa(lp1396
Vhorenso
p1397
aVhourenso
p1398
aa(lp1399
Vhoriati
p1400
aVhoriatiki
p1401
aa(lp1402
Vhot chick
p1403
aVhotchick
p1404
aa(lp1405
Vhot dog
p1406
aVhotdog
p1407
aa(lp1408
Vhot plate
p1409
aVhotplate
p1410
aa(lp1411
Vhot pot
p1412
aVhotpot
p1413
aa(lp1414
Vhot stone
p1415
aVhotstone
p1416
aVston
p1417
aa(lp1418
Vhoy
p1419
aVhoi
p1420
aa(lp1421
Vhua diao
p1422
aVhuadiao
p1423
aa(lp1424
Vhyderabadi
p1425
aVhyderbadi
p1426
aa(lp1427
Vice cream
p1428
aVicecream
p1429
aa(lp1430
Vidako
p1431
aViidako
p1432
aVitako
p1433
aVildako
p1434
aVlidako
p1435
aVidago
p1436
aa(lp1437
Vidly
p1438
aVidli
p1439
aViddli
p1440
aa(lp1441
Vif
p1442
aVthrif
p1443
aa(lp1444
Vika
p1445
aVyariika
p1446
aa(lp1447
Vikageso
p1448
aVgeso
p1449
aVgesu
p1450
aVgesso
p1451
aa(lp1452
Vikan bili
p1453
aVikambili
p1454
aVikanbili
p1455
aa(lp1456
Vikka
p1457
aVtiikka
p1458
aa(lp1459
Vile
p1460
aVaile
p1461
aa(lp1462
Vimpepata
p1463
aVpepata
p1464
aa(lp1465
Vinaniwa
p1466
aVinariwa
p1467
aa(lp1468
Vindonesian
p1469
aVindonesia
p1470
aa(lp1471
Ving
p1472
aVthing
p1473
aa(lp1474
Vinjeolmi
p1475
aVinjeomi
p1476
aa(lp1477
Vinni
p1478
aVinnis
p1479
aa(lp1480
Vinsalata
p1481
aVinsalate
p1482
aa(lp1483
Viskandar
p1484
aViskand
p1485
aa(lp1486
Vistimewa
p1487
aVistemewa
p1488
aVistimewah
p1489
aa(lp1490
Vitek
p1491
aVitik
p1492
aa(lp1493
Viwashi
p1494
aViwasshi
p1495
aa(lp1496
Vizgara
p1497
aVizcara
p1498
aa(lp1499
Vjab chae
p1500
aVjabchae
p1501
aa(lp1502
Vjako
p1503
aVjyako
p1504
aa(lp1505
Vjal
p1506
aVjhal
p1507
aVjalalli
p1508
aa(lp1509
Vjalapeno
p1510
aVjalapeo
p1511
aa(lp1512
Vjalfarezi
p1513
aVjalfarezy
p1514
aa(lp1515
Vjambon
p1516
aVjumbon
p1517
aa(lp1518
Vjamin
p1519
aVjamun
p1520
aa(lp1521
Vjamon
p1522
aVjamn
p1523
aa(lp1524
Vjapan
p1525
aVjapon
p1526
aa(lp1527
Vjehangiri
p1528
aVjehangir
p1529
aa(lp1530
Vjenny
p1531
aVjennys
p1532
aa(lp1533
Vjeon gol
p1534
aVjeongol
p1535
aa(lp1536
Vjeong
p1537
aVjiong
p1538
aa(lp1539
Vjew
p1540
aVjet
p1541
aVjee
p1542
aa(lp1543
Vjeyuk
p1544
aVjaeyuk
p1545
aa(lp1546
Vjhal frazi
p1547
aVjalfrazi
p1548
aVjhalfrazi
p1549
aa(lp1550
Vjhim
p1551
aVrhim
p1552
aa(lp1553
Vjhinga
p1554
aVjhingha
p1555
aVjingha
p1556
aa(lp1557
Vji ji
p1558
aVjiji
p1559
aa(lp1560
Vjia
p1561
aVjip
p1562
aa(lp1563
Vjiang nan
p1564
aVjiangnan
p1565
aa(lp1566
Vjing du
p1567
aVjingdu
p1568
aa(lp1569
Vjiru
p1570
aVjiro
p1571
aa(lp1572
Vjja jang
p1573
aVjjajang
p1574
aa(lp1575
Vjjajang bap
p1576
aVjapchae
p1577
aVjang
p1578
aVjajang
p1579
aVgamja
p1580
aVja
p1581
aVjja
p1582
aVgom
p1583
aVhejang
p1584
aVgam
p1585
aVjapche
p1586
aVjjajangbap
p1587
aa(lp1588
Vjjajang myeon
p1589
aVjjajangmyeon
p1590
aa(lp1591
Vjji gae
p1592
aVjjigae
p1593
aVjjiage
p1594
aVjijigae
p1595
aVjigae
p1596
aVjjige
p1597
aa(lp1598
Vjjim
p1599
aVjjimdak
p1600
aVjiim
p1601
aa(lp1602
Vjohnnie
p1603
aVjohnie
p1604
aa(lp1605
Vjok bal
p1606
aVjokbal
p1607
aa(lp1608
Vjolly
p1609
aVholly
p1610
aa(lp1611
Vjosh
p1612
aVgosh
p1613
aa(lp1614
Vjula
p1615
aVjuli
p1616
aa(lp1617
Vjun
p1618
aVjungol
p1619
aa(lp1620
Vka
p1621
aVkamal
p1622
aa(lp1623
Vka nar
p1624
aVkanar
p1625
aa(lp1626
Vkaakra
p1627
aVkankra
p1628
aa(lp1629
Vkabayaki
p1630
aVkaba
p1631
aVkapayaki
p1632
aVkabanyaki
p1633
aa(lp1634
Vkabuli
p1635
aVkhabuli
p1636
aa(lp1637
Vkachumber
p1638
aVkachumbar
p1639
aVkuchumber
p1640
aVkuchumbar
p1641
aa(lp1642
Vkadai
p1643
aVkadhai
p1644
aVkedai
p1645
aVkadahi
p1646
aVkarahi
p1647
aVkadaai
p1648
aVkhadai
p1649
aa(lp1650
Vkadi
p1651
aVkadhi
p1652
aVkada
p1653
aa(lp1654
Vkah
p1655
aVkar
p1656
aVtah
p1657
aVtay
p1658
aVpongtay
p1659
aVrah
p1660
aa(lp1661
Vkai
p1662
aVkwai
p1663
aVkhai
p1664
aVkhal
p1665
aa(lp1666
Vkai lan
p1667
aVkailan
p1668
aa(lp1669
Vkaiso
p1670
aVkaisou
p1671
aa(lp1672
Vkake
p1673
aVbukkake
p1674
aa(lp1675
Vkalamaki
p1676
aVkalmaki
p1677
aa(lp1678
Vkali mirch
p1679
aVkalimirch
p1680
aa(lp1681
Vkali mirchi
p1682
aVkalimirchi
p1683
aa(lp1684
Vkambing
p1685
aVkamb
p1686
aa(lp1687
Vkana
p1688
aVkhana
p1689
aa(lp1690
Vkanchiong
p1691
aVkachiong
p1692
aa(lp1693
Vkang
p1694
aVkan
p1695
aa(lp1696
Vkang kong
p1697
aVkangkong
p1698
aVkangkung
p1699
aa(lp1700
Vkani fumi
p1701
aVkanifumi
p1702
aa(lp1703
Vkani kama
p1704
aVkanikama
p1705
aa(lp1706
Vkani mayo
p1707
aVkanimayo
p1708
aa(lp1709
Vkao
p1710
aVgao
p1711
aVkau
p1712
aVkow
p1713
aVkou
p1714
aVkaw
p1715
aVgow
p1716
aVgau
p1717
aa(lp1718
Vkara age
p1719
aVkaraage
p1720
aVkarage
p1721
aVkaarage
p1722
aVkarrage
p1723
aVkarange
p1724
aVkararage
p1725
aa(lp1726
Vkaree
p1727
aVgaree
p1728
aa(lp1729
Vkashmiri
p1730
aVkashimiri
p1731
aVkasmiri
p1732
aVkashmir
p1733
aVkashmiru
p1734
aa(lp1735
Vkathi
p1736
aVkati
p1737
aa(lp1738
Vkawali
p1739
aVwal
p1740
aVwally
p1741
aa(lp1742
Vkebab
p1743
aVkabab
p1744
aVkebeb
p1745
aVkabeb
p1746
aa(lp1747
Vkee mao
p1748
aVkeemao
p1749
aa(lp1750
Vkeema
p1751
aVkheema
p1752
aVkeena
p1753
aa(lp1754
Vkeow
p1755
aVkhiew
p1756
aVkeaw
p1757
aVkhew
p1758
aVkeo
p1759
aVkaew
p1760
aVkheaw
p1761
aa(lp1762
Vkepet
p1763
aVkepeting
p1764
aVkepiting
p1765
aVkepit
p1766
aa(lp1767
Vkerala
p1768
aVkerela
p1769
aa(lp1770
Vkerupuk
p1771
aVkrupuk
p1772
aa(lp1773
Vkeuy
p1774
aVkay
p1775
aVkauy
p1776
aa(lp1777
Vkhameri
p1778
aVkhamiri
p1779
aa(lp1780
Vkhao
p1781
aVkhaw
p1782
aa(lp1783
Vkhem
p1784
aVkem
p1785
aa(lp1786
Vkhi
p1787
aVkhing
p1788
aVkhung
p1789
aa(lp1790
Vkhichdi
p1791
aVkhichadi
p1792
aa(lp1793
Vkho
p1794
aVkhm
p1795
aa(lp1796
Vki
p1797
aVapki
p1798
aa(lp1799
Vkicap
p1800
aVkecap
p1801
aVkichap
p1802
aVkechap
p1803
aa(lp1804
Vkiew
p1805
aVpiew
p1806
aa(lp1807
Vkim chi
p1808
aVkimchi
p1809
aa(lp1810
Vkimchi jeon
p1811
aVkimchijeon
p1812
aa(lp1813
Vkit
p1814
aVkat
p1815
aa(lp1816
Vknife
p1817
aVknice
p1818
aa(lp1819
Vko
p1820
aVsadeko
p1821
aa(lp1822
Vkofta
p1823
aVkafta
p1824
aVkoftha
p1825
aVkoptha
p1826
aa(lp1827
Vkoliwada
p1828
aVkollwada
p1829
aa(lp1830
Vkolo mee
p1831
aVkolomee
p1832
aa(lp1833
Vkong
p1834
aVhong
p1835
aa(lp1836
Vkoong
p1837
aVkhoong
p1838
aa(lp1839
Vkor
p1840
aVkod
p1841
aa(lp1842
Vkorma
p1843
aVkhorma
p1844
aa(lp1845
Vkorokke
p1846
aVkoroke
p1847
aa(lp1848
Vkorubuta
p1849
aVkorobuta
p1850
aa(lp1851
Vkothu
p1852
aVkotthu
p1853
aVkoothu
p1854
aVkotu
p1855
aVkoththu
p1856
aVkottu
p1857
aVkuthu
p1858
aa(lp1859
Vkra
p1860
aVkrai
p1861
aa(lp1862
Vkra pao
p1863
aVkrapaw
p1864
aVkrapao
p1865
aa(lp1866
Vkra tiem
p1867
aVkratiem
p1868
aVkratiam
p1869
aVtakkrai
p1870
aa(lp1871
Vkrem
p1872
aVkreme
p1873
aa(lp1874
Vkrob
p1875
aVgrob
p1876
aa(lp1877
Vkrung
p1878
aVkrueng
p1879
aa(lp1880
Vkuah
p1881
aVkwah
p1882
aa(lp1883
Vkuksu
p1884
aVguksu
p1885
aa(lp1886
Vkulchan
p1887
aVkunchan
p1888
aa(lp1889
Vkun
p1890
aVkuning
p1891
aa(lp1892
Vkung pao
p1893
aVkungpao
p1894
aa(lp1895
Vkurage
p1896
aVkuraage
p1897
aa(lp1898
Vkurkure
p1899
aVkurkuri
p1900
aVkur
p1901
aVkuri
p1902
aa(lp1903
Vkuro
p1904
aVkurosu
p1905
aa(lp1906
Vkusbasili
p1907
aVkusbasi
p1908
aVkusbasli
p1909
aa(lp1910
Vkut
p1911
aVkuh
p1912
aa(lp1913
Vkutumbiri
p1914
aVkutambiri
p1915
aa(lp1916
Vkway
p1917
aVkuay
p1918
aVkuey
p1919
aVkoay
p1920
aVkwey
p1921
aa(lp1922
Vkway teow
p1923
aVkwayteow
p1924
aa(lp1925
Vkwe
p1926
aVkwetiaw
p1927
aa(lp1928
Vkyu
p1929
aVjyu
p1930
aa(lp1931
Vla mian
p1932
aVlamian
p1933
aa(lp1934
Vlaal
p1935
aVlal
p1936
aa(lp1937
Vlabneh
p1938
aVlabnah
p1939
aa(lp1940
Vlacha
p1941
aVlachha
p1942
aVlaccha
p1943
aVlachcha
p1944
aVlacchha
p1945
aVlatcha
p1946
aVlanchcha
p1947
aVlachna
p1948
aa(lp1949
Vlad
p1950
aVsad
p1951
aa(lp1952
Vlad na
p1953
aVladna
p1954
aa(lp1955
Vlady finger
p1956
aVladyfinger
p1957
aa(lp1958
Vlagare
p1959
aVlagareiro
p1960
aa(lp1961
Vlamb shank
p1962
aVlambshank
p1963
aa(lp1964
Vlankan
p1965
aVlanka
p1966
aa(lp1967
Vlao
p1968
aVlau
p1969
aVlu
p1970
aVru
p1971
aVruo
p1972
aa(lp1973
Vlarb
p1974
aVlaab
p1975
aVlahb
p1976
aa(lp1977
Vlasagna
p1978
aVlasagne
p1979
aa(lp1980
Vlasuni
p1981
aVlashuni
p1982
aa(lp1983
Vlavender
p1984
aVlavendar
p1985
aa(lp1986
Vleab
p1987
aVliab
p1988
aVlieb
p1989
aVliap
p1990
aa(lp1991
Vlehsuni
p1992
aVlehsumi
p1993
aa(lp1994
Vlei cha
p1995
aVleicha
p1996
aa(lp1997
Vlet
p1998
aVdet
p1999
aa(lp2000
Vlgume
p2001
aVlegume
p2002
aa(lp2003
Vlily bulb
p2004
aVlilybulb
p2005
aa(lp2006
Vlimau
p2007
aVlimao
p2008
aVlimo
p2009
aa(lp2010
Vlindeman
p2011
aVlindenman
p2012
aa(lp2013
Vlinguine
p2014
aVlinguinne
p2015
aa(lp2016
Vlo han
p2017
aVlohan
p2018
aa(lp2019
Vlog cake
p2020
aVlogcake
p2021
aa(lp2022
Vlok
p2023
aVfok
p2024
aa(lp2025
Vlollipop
p2026
aVlolipop
p2027
aa(lp2028
Vlong bean
p2029
aVlongbean
p2030
aa(lp2031
Vlor
p2032
aVlou
p2033
aVloh
p2034
aa(lp2035
Vlot
p2036
aVvt
p2037
aVlt
p2038
aa(lp2039
Vluc
p2040
aVlac
p2041
aa(lp2042
Vlucknowi
p2043
aVlucknawi
p2044
aa(lp2045
Vlunch box
p2046
aVlunchbox
p2047
aa(lp2048
Vlunette
p2049
aVlune
p2050
aa(lp2051
Vluo han
p2052
aVluohan
p2053
aa(lp2054
Vma la
p2055
aVmala
p2056
aa(lp2057
Vma muang
p2058
aVmamuang
p2059
aa(lp2060
Vma po
p2061
aVmapo
p2062
aa(lp2063
Vmaas
p2064
aVmass
p2065
aa(lp2066
Vmaca
p2067
aVmaka
p2068
aa(lp2069
Vmacaron
p2070
aVmacaroon
p2071
aVmacroon
p2072
aa(lp2073
Vmach
p2074
aVmachchi
p2075
aVmachee
p2076
aa(lp2077
Vmachli
p2078
aVmachali
p2079
aVmacchli
p2080
aa(lp2081
Vmachlici
p2082
aVmachilici
p2083
aa(lp2084
Vmadonnina
p2085
aVmadonninna
p2086
aa(lp2087
Vmaggie
p2088
aVmaggi
p2089
aVmaggige
p2090
aa(lp2091
Vmagherita
p2092
aVmargharita
p2093
aVmagharita
p2094
aa(lp2095
Vmaguro
p2096
aVmagura
p2097
aa(lp2098
Vmakai
p2099
aVmakki
p2100
aVmakkai
p2101
aa(lp2102
Vmakhani
p2103
aVmakhni
p2104
aVmakahni
p2105
aVmakheni
p2106
aVmakahani
p2107
aa(lp2108
Vmaki
p2109
aVtemaki
p2110
aa(lp2111
Vmakni
p2112
aVmakini
p2113
aa(lp2114
Vmakunouchi
p2115
aVmaunouchi
p2116
aa(lp2117
Vmalabar
p2118
aVmalabari
p2119
aa(lp2120
Vmalacca
p2121
aVmelacca
p2122
aa(lp2123
Vmalay
p2124
aVmalaysian
p2125
aa(lp2126
Vmambo
p2127
aVmumbo
p2128
aa(lp2129
Vmami
p2130
aVmarmi
p2131
aa(lp2132
Vmamre
p2133
aVmamrre
p2134
aa(lp2135
Vman tou
p2136
aVmantou
p2137
aa(lp2138
Vmanao
p2139
aVmanau
p2140
aa(lp2141
Vmanchurian
p2142
aVmanchorian
p2143
aa(lp2144
Vmandi
p2145
aVmendi
p2146
aa(lp2147
Vmani
p2148
aVmanis
p2149
aa(lp2150
Vmanpasand
p2151
aVmanpasanda
p2152
aa(lp2153
Vmanul
p2154
aVtongmanul
p2155
aa(lp2156
Vmanzo
p2157
aVmanzow
p2158
aa(lp2159
Vmari
p2160
aVmeri
p2161
aa(lp2162
Vmarisco
p2163
aVmariso
p2164
aa(lp2165
Vmaru
p2166
aVmaruyaki
p2167
aVmaryaki
p2168
aa(lp2169
Vmasak
p2170
aVmesak
p2171
aVmasek
p2172
aa(lp2173
Vmasala
p2174
aVmasla
p2175
aa(lp2176
Vmasaledar
p2177
aVmaseledar
p2178
aa(lp2179
Vmasallam
p2180
aVmasal
p2181
aa(lp2182
Vmashwi
p2183
aVmashwii
p2184
aVmeshwi
p2185
aa(lp2186
Vmasi
p2187
aVmabis
p2188
aVmabi
p2189
aa(lp2190
Vmassaman
p2191
aVmassamun
p2192
aVmussaman
p2193
aa(lp2194
Vmatrimony
p2195
aVmatrimoney
p2196
aa(lp2197
Vmauro
p2198
aVuro
p2199
aa(lp2200
Vmaw
p2201
aVfishmaw
p2202
aVmow
p2203
aa(lp2204
Vmc laren
p2205
aVclare
p2206
aVmclaren
p2207
aVmclren
p2208
aa(lp2209
Vmeat lover
p2210
aVmeatlover
p2211
aa(lp2212
Vmedame
p2213
aVmedama
p2214
aa(lp2215
Vmedhu
p2216
aVmedu
p2217
aa(lp2218
Vmee siam
p2219
aVmeesiam
p2220
aa(lp2221
Vmee sua
p2222
aVmeesua
p2223
aa(lp2224
Vmeen
p2225
aVneymeen
p2226
aa(lp2227
Vmei cai
p2228
aVmeicai
p2229
aa(lp2230
Vmekajiki
p2231
aVmejajiki
p2232
aa(lp2233
Vmelanza
p2234
aVmelanzana
p2235
aa(lp2236
Vmelanzane
p2237
aVmelazane
p2238
aa(lp2239
Vmelt
p2240
aVmeltz
p2241
aa(lp2242
Vmeng
p2243
aVbeng
p2244
aa(lp2245
Vmentai yaki
p2246
aVmentaiyaki
p2247
aa(lp2248
Vmentega
p2249
aVmentegate
p2250
aa(lp2251
Vmer
p2252
aVme
p2253
aa(lp2254
Vmerah
p2255
aVmera
p2256
aa(lp2257
Vmeshi
p2258
aVkamameshi
p2259
aa(lp2260
Vmeuk
p2261
aVmerk
p2262
aa(lp2263
Vmexx
p2264
aVmexa
p2265
aa(lp2266
Vmeze
p2267
aVmezze
p2268
aa(lp2269
Vmi xian
p2270
aVmixian
p2271
aa(lp2272
Vmiao
p2273
aVmilao
p2274
aVmiau
p2275
aa(lp2276
Vmichel
p2277
aVmichael
p2278
aVmichelle
p2279
aa(lp2280
Vmid
p2281
aVmd
p2282
aa(lp2283
Vmid joint
p2284
aVmidjoint
p2285
aa(lp2286
Vmid wing
p2287
aVmidwing
p2288
aa(lp2289
Vmie
p2290
aVindomie
p2291
aa(lp2292
Vmikey
p2293
aVmikeys
p2294
aa(lp2295
Vmilagha
p2296
aVmilgha
p2297
aa(lp2298
Vmili
p2299
aVmila
p2300
aVmilli
p2301
aa(lp2302
Vmilkish
p2303
aVmilkfish
p2304
aa(lp2305
Vmincedmeat
p2306
aVmincemeat
p2307
aa(lp2308
Vmirch
p2309
aVmirchi
p2310
aVmirchwala
p2311
aVmirchwaka
p2312
aa(lp2313
Vmixed
p2314
aVmix
p2315
aa(lp2316
Vmiz
p2317
aVkirmizi
p2318
aa(lp2319
Vml
p2320
aVbling
p2321
aVbl
p2322
aa(lp2323
Vmo
p2324
aVmoh
p2325
aa(lp2326
Vmodum
p2327
aVmodeum
p2328
aa(lp2329
Vmoham
p2330
aVmohamed
p2331
aa(lp2332
Vmoilee
p2333
aVmollee
p2334
aa(lp2335
Vmoine
p2336
aVmoin
p2337
aa(lp2338
Vmonkey head
p2339
aVmonkeyhead
p2340
aa(lp2341
Vmonsieur
p2342
aVmonsieu
p2343
aa(lp2344
Vmontepulciano
p2345
aVmontepulciana
p2346
aa(lp2347
Vmora
p2348
aVmoka
p2349
aa(lp2350
Vmoretti
p2351
aVmorretti
p2352
aa(lp2353
Vmoriawase
p2354
aVmoriwase
p2355
aa(lp2356
Vmorrocan
p2357
aVmorocan
p2358
aa(lp2359
Vmorunos
p2360
aVmoruno
p2361
aa(lp2362
Vmoung
p2363
aVhoung
p2364
aa(lp2365
Vmourvedre
p2366
aVmourvdre
p2367
aa(lp2368
Vmousakka
p2369
aVmousakaa
p2370
aa(lp2371
Vmoussaka
p2372
aVmousaka
p2373
aVmussaka
p2374
aa(lp2375
Vmoz
p2376
aVmozz
p2377
aa(lp2378
Vmozarella
p2379
aVmozerella
p2380
aa(lp2381
Vmuek
p2382
aVmurk
p2383
aa(lp2384
Vmui
p2385
aVhui
p2386
aa(lp2387
Vmui fan
p2388
aVmuifan
p2389
aa(lp2390
Vmulti grain
p2391
aVmultigrain
p2392
aa(lp2393
Vmun
p2394
aVmua
p2395
aa(lp2396
Vmurgh
p2397
aVmurg
p2398
aVmurghi
p2399
aVmurhg
p2400
aa(lp2401
Vmurtabak
p2402
aVmutabak
p2403
aVmurthabak
p2404
aVmurabak
p2405
aVmurutabak
p2406
aa(lp2407
Vmurthabha
p2408
aVmurthaba
p2409
aa(lp2410
Vmushroom
p2411
aVmushrom
p2412
aVmushoom
p2413
aa(lp2414
Vmutter
p2415
aVmattar
p2416
aVmatar
p2417
aVmatter
p2418
aVmuttar
p2419
aa(lp2420
Vmyeongdong
p2421
aVmyeondong
p2422
aa(lp2423
Vmyon
p2424
aVmyun
p2425
aa(lp2426
Vmysore
p2427
aVmysure
p2428
aa(lp2429
Vnaan
p2430
aVnann
p2431
aa(lp2432
Vnaengmyun
p2433
aVnaeng
p2434
aa(lp2435
Vnah
p2436
aVneow
p2437
aVnaa
p2438
aVneaw
p2439
aVnaw
p2440
aa(lp2441
Vnai bai
p2442
aVnaibai
p2443
aa(lp2444
Vnam
p2445
aVnum
p2446
aVnham
p2447
aa(lp2448
Vnam pla
p2449
aVnampla
p2450
aa(lp2451
Vnana
p2452
aVnena
p2453
aa(lp2454
Vnanban
p2455
aVnaban
p2456
aa(lp2457
Vnangka
p2458
aVnanka
p2459
aa(lp2460
Vnargis
p2461
aVnargisi
p2462
aVnargish
p2463
aa(lp2464
Vnatto
p2465
aVnattou
p2466
aa(lp2467
Vnavratan
p2468
aVnavrattan
p2469
aVnavarattan
p2470
aVnavrathan
p2471
aVnavratran
p2472
aVnavaratan
p2473
aVnavrantan
p2474
aVratan
p2475
aa(lp2476
Vne
p2477
aVkogane
p2478
aa(lp2479
Vneslo
p2480
aVnestlo
p2481
aa(lp2482
Vnethill
p2483
aVnethili
p2484
aa(lp2485
Vng
p2486
aVong
p2487
aa(lp2488
Vngai
p2489
aVnhai
p2490
aa(lp2491
Vngoh
p2492
aVngo
p2493
aVngor
p2494
aa(lp2495
Vnice
p2496
aVfice
p2497
aa(lp2498
Vnicoise
p2499
aVnioise
p2500
aa(lp2501
Vninniku
p2502
aVniniku
p2503
aa(lp2504
Vnm
p2505
aVnem
p2506
aa(lp2507
Vnng
p2508
aVmng
p2509
aa(lp2510
Vnoisette
p2511
aVnoisett
p2512
aa(lp2513
Vnom
p2514
aVom
p2515
aVomm
p2516
aa(lp2517
Vnomiyaki
p2518
aVtakonomiyaki
p2519
aa(lp2520
Vnomnivore
p2521
aVomnivore
p2522
aa(lp2523
Vnor mai
p2524
aVnormai
p2525
aa(lp2526
Vnori ben
p2527
aVnoriben
p2528
aa(lp2529
Vnorwegian
p2530
aVnorwegien
p2531
aa(lp2532
Vnto
p2533
aVento
p2534
aa(lp2535
Vnua
p2536
aVrua
p2537
aVnue
p2538
aa(lp2539
Vnueng
p2540
aVneng
p2541
aVneung
p2542
aVnuang
p2543
aVnung
p2544
aa(lp2545
Vnuer
p2546
aVnuea
p2547
aa(lp2548
Vnuong
p2549
aVmuong
p2550
aVhuong
p2551
aa(lp2552
Vnyeom
p2553
aVyeom
p2554
aa(lp2555
Vob
p2556
aVobb
p2557
aa(lp2558
Voh
p2559
aVuh
p2560
aa(lp2561
Vonion
p2562
aVorion
p2563
aa(lp2564
Vonstik
p2565
aVonstick
p2566
aa(lp2567
Voothappam
p2568
aVoothapam
p2569
aa(lp2570
Vop
p2571
aVoap
p2572
aa(lp2573
Vorecchiette
p2574
aVorecciette
p2575
aa(lp2576
Voreo
p2577
aVorea
p2578
aa(lp2579
Vorientali
p2580
aVorientalin
p2581
aa(lp2582
Vosaka
p2583
aVoska
p2584
aa(lp2585
Voshinko
p2586
aVshinko
p2587
aa(lp2588
Vosso buco
p2589
aVossobuco
p2590
aa(lp2591
Vosuimono
p2592
aVsuimono
p2593
aa(lp2594
Votah
p2595
aVotak
p2596
aa(lp2597
Votoro
p2598
aVootoro
p2599
aa(lp2600
Vou
p2601
aVjou
p2602
aVfitou
p2603
aa(lp2604
Vox tail
p2605
aVoxtail
p2606
aa(lp2607
Voyako
p2608
aVoyaku
p2609
aVoyaka
p2610
aa(lp2611
Voyako don
p2612
aVoyakodon
p2613
aa(lp2614
Vpacked
p2615
aVhandpacked
p2616
aa(lp2617
Vpad pong
p2618
aVpadpong
p2619
aa(lp2620
Vpad prik
p2621
aVpaprik
p2622
aVpadprik
p2623
aVpapprik
p2624
aa(lp2625
Vpadang
p2626
aVpedang
p2627
aVpendang
p2628
aa(lp2629
Vpaigu
p2630
aVpaiku
p2631
aa(lp2632
Vpajeon
p2633
aVpajon
p2634
aVpagjeon
p2635
aVpajun
p2636
aa(lp2637
Vpak
p2638
aVprik
p2639
aVphak
p2640
aVprak
p2641
aa(lp2642
Vpak choi
p2643
aVpakchoi
p2644
aa(lp2645
Vpakora
p2646
aVpakoda
p2647
aVpakorda
p2648
aVpakkora
p2649
aVpakkoda
p2650
aVbakora
p2651
aa(lp2652
Vpan sear
p2653
aVpansear
p2654
aa(lp2655
Vpanaeng
p2656
aVpanang
p2657
aVpaneang
p2658
aVpaneng
p2659
aa(lp2660
Vpaneer
p2661
aVpanner
p2662
aa(lp2663
Vpanggang
p2664
aVpenggang
p2665
aa(lp2666
Vpani
p2667
aVpaani
p2668
aa(lp2669
Vpanna cotta
p2670
aVpannacotta
p2671
aa(lp2672
Vpanzarotti
p2673
aVpanzerotti
p2674
aa(lp2675
Vpapad
p2676
aVpapadum
p2677
aVpapaddum
p2678
aVpappad
p2679
aa(lp2680
Vpapdi
p2681
aVpapri
p2682
aVpapadi
p2683
aVpappadi
p2684
aVpaapdi
p2685
aa(lp2686
Vpaper
p2687
aVpapper
p2688
aa(lp2689
Vparmigiana
p2690
aVparmiglana
p2691
aa(lp2692
Vparmigiano
p2693
aVparmagiano
p2694
aVparmiggiano
p2695
aVparmigglano
p2696
aa(lp2697
Vparotta
p2698
aVparota
p2699
aa(lp2700
Vparrilla
p2701
aVparilla
p2702
aa(lp2703
Vparty
p2704
aVkarty
p2705
aa(lp2706
Vpassion fruit
p2707
aVpassionfruit
p2708
aa(lp2709
Vpat bingsu
p2710
aVpatbingsu
p2711
aa(lp2712
Vpatiyala
p2713
aVpattiyala
p2714
aa(lp2715
Vpattaya
p2716
aVpataya
p2717
aa(lp2718
Vpea shoot
p2719
aVpeashoot
p2720
aa(lp2721
Vpeek
p2722
aVbeek
p2723
aa(lp2724
Vpeel
p2725
aVpeele
p2726
aa(lp2727
Vpellegrino
p2728
aVpellegriono
p2729
aa(lp2730
Vpen
p2731
aVoopen
p2732
aa(lp2733
Vpeng
p2734
aVweng
p2735
aa(lp2736
Vpenley
p2737
aVpenly
p2738
aa(lp2739
Vpenne
p2740
aVpennette
p2741
aa(lp2742
Vpeperon
p2743
aVpepperon
p2744
aa(lp2745
Vpepper
p2746
aVpep
p2747
aVpeppper
p2748
aa(lp2749
Vpeshawari
p2750
aVpeshwari
p2751
aVpeswari
p2752
aVpesuwari
p2753
aa(lp2754
Vphad
p2755
aVpad
p2756
aVphat
p2757
aVphai
p2758
aVphap
p2759
aVphag
p2760
aa(lp2761
Vphaldari
p2762
aVphaldhari
p2763
aa(lp2764
Vphet
p2765
aVpiah
p2766
aVpiao
p2767
aVpiat
p2768
aVpiet
p2769
aa(lp2770
Vphiladephia
p2771
aVphiladelphia
p2772
aa(lp2773
Vphoneix
p2774
aVphonex
p2775
aa(lp2776
Vphu nim
p2777
aVphunim
p2778
aa(lp2779
Vpia
p2780
aVphia
p2781
aa(lp2782
Vpic
p2783
aVepice
p2784
aa(lp2785
Vpierrele
p2786
aVpierrelee
p2787
aa(lp2788
Vpine nut
p2789
aVpinenut
p2790
aa(lp2791
Vpitan
p2792
aVpidan
p2793
aa(lp2794
Vplank
p2795
aVplanky
p2796
aa(lp2797
Vplanta
p2798
aVpianta
p2799
aa(lp2800
Vpo boy
p2801
aVpoboy
p2802
aa(lp2803
Vpodina
p2804
aVpoodina
p2805
aa(lp2806
Vpoiully
p2807
aVpoully
p2808
aa(lp2809
Vpolichatu
p2810
aVpolichathu
p2811
aa(lp2812
Vpollo
p2813
aVpollodi
p2814
aa(lp2815
Vpollo alla
p2816
aVpolloalla
p2817
aa(lp2818
Vpolpo
p2819
aVpolipo
p2820
aa(lp2821
Vpomerol
p2822
aVpromerol
p2823
aa(lp2824
Vpomme
p2825
aVpomm
p2826
aa(lp2827
Vpong
p2828
aVkrapong
p2829
aa(lp2830
Vpongteh
p2831
aVponteh
p2832
aa(lp2833
Vpop corn
p2834
aVpopcorn
p2835
aa(lp2836
Vpopbit
p2837
aVpopbite
p2838
aa(lp2839
Vporcini
p2840
aVporchini
p2841
aa(lp2842
Vpot pie
p2843
aVpotpie
p2844
aa(lp2845
Vpouilly
p2846
aVpuilly
p2847
aa(lp2848
Vpow
p2849
aVpraw
p2850
aVprow
p2851
aVgraprow
p2852
aa(lp2853
Vprata
p2854
aVparatha
p2855
aVparata
p2856
aVparantha
p2857
aVpratha
p2858
aVprantha
p2859
aVpartha
p2860
aVparatta
p2861
aa(lp2862
Vpre pack
p2863
aVprepack
p2864
aa(lp2865
Vpri
p2866
aVgrai
p2867
aVprai
p2868
aa(lp2869
Vprimavera
p2870
aVprimevera
p2871
aa(lp2872
Vproscuitto
p2873
aVproscuito
p2874
aVproscutto
p2875
aa(lp2876
Vpulao
p2877
aVpulav
p2878
aVpilau
p2879
aVpulau
p2880
aVpillau
p2881
aVpilao
p2882
aVpalau
p2883
aa(lp2884
Vpull
p2885
aVpupll
p2886
aa(lp2887
Vpumkin
p2888
aVpumpin
p2889
aa(lp2890
Vpunggol
p2891
aVponggol
p2892
aa(lp2893
Vpunjabi
p2894
aVpanj
p2895
aVpanjabi
p2896
aa(lp2897
Vputtanesca
p2898
aVputanesca
p2899
aa(lp2900
Vputtu
p2901
aVputu
p2902
aVputhu
p2903
aa(lp2904
Vpyaaz
p2905
aVpyaz
p2906
aa(lp2907
Vpyaza
p2908
aVpiaza
p2909
aVpiyaza
p2910
aVpiazza
p2911
aVpyazza
p2912
aVpyaaza
p2913
aVpiyasa
p2914
aVpeyaza
p2915
aa(lp2916
Vqinlong
p2917
aVqinglong
p2918
aa(lp2919
Vqua
p2920
aVqut
p2921
aVquet
p2922
aa(lp2923
Vquattro
p2924
aVquanttro
p2925
aa(lp2926
Vquay
p2927
aVquai
p2928
aa(lp2929
Vquesadilla
p2930
aVquesidilla
p2931
aa(lp2932
Vquick lunch
p2933
aVquicklunch
p2934
aa(lp2935
Vraclette
p2936
aVraclettte
p2937
aa(lp2938
Vrad
p2939
aVraad
p2940
aVrhad
p2941
aVradd
p2942
aa(lp2943
Vragu
p2944
aVrag
p2945
aa(lp2946
Vramyeon
p2947
aVramyon
p2948
aa(lp2949
Vramyun
p2950
aVramyum
p2951
aa(lp2952
Vrau
p2953
aVcau
p2954
aa(lp2955
Vrava
p2956
aVrawa
p2957
aa(lp2958
Vrawan
p2959
aVrawang
p2960
aa(lp2961
Vrebus
p2962
aVreebus
p2963
aVrobus
p2964
aVrubus
p2965
aa(lp2966
Vreisyu
p2967
aVsyu
p2968
aa(lp2969
Vrelleno
p2970
aVrellenos
p2971
aa(lp2972
Vreshmi
p2973
aVreshami
p2974
aVresmi
p2975
aa(lp2976
Vrestore
p2977
aVrestor
p2978
aa(lp2979
Vri naise
p2980
aVrinaise
p2981
aa(lp2982
Vrib eye
p2983
aVribeye
p2984
aa(lp2985
Vrillet
p2986
aVgrillet
p2987
aa(lp2988
Vrillette
p2989
aVrilette
p2990
aVrillete
p2991
aa(lp2992
Vroasted
p2993
aVroast
p2994
aa(lp2995
Vrogan
p2996
aVroghan
p2997
aa(lp2998
Vrogan josh
p2999
aVroganjosh
p3000
aa(lp3001
Vroganosh
p3002
aVrogangosh
p3003
aa(lp3004
Vroja
p3005
aVrojo
p3006
aa(lp3007
Vromaine
p3008
aVroman
p3009
aVromain
p3010
aa(lp3011
Vroot beer
p3012
aVrootbeer
p3013
aa(lp3014
Vroti
p3015
aVrotti
p3016
aVrooti
p3017
aa(lp3018
Vrotwein
p3019
aVrotweinsobe
p3020
aa(lp3021
Vruam mit
p3022
aVruammit
p3023
aa(lp3024
Vrucola
p3025
aVrucula
p3026
aa(lp3027
Vruem
p3028
aVruom
p3029
aa(lp3030
Vrumali
p3031
aVromali
p3032
aa(lp3033
Vsa
p3034
aVsac
p3035
aa(lp3036
Vsaag
p3037
aVsaagwala
p3038
aVsag
p3039
aa(lp3040
Vsaba
p3041
aVtorosaba
p3042
aa(lp3043
Vsabzi
p3044
aVsubji
p3045
aVsubzi
p3046
aVsabz
p3047
aa(lp3048
Vsah
p3049
aVyah
p3050
aa(lp3051
Vsaikyo
p3052
aVsaiko
p3053
aa(lp3054
Vsalata
p3055
aVsalatasi
p3056
aa(lp3057
Vsalmonand
p3058
aVsalmo
p3059
aa(lp3060
Vsalsiccia
p3061
aVsalciccia
p3062
aa(lp3063
Vsalt
p3064
aVsalted
p3065
aa(lp3066
Vsaltate
p3067
aVsaltati
p3068
aa(lp3069
Vsaltimbocca
p3070
aVsatimbocca
p3071
aa(lp3072
Vsam rod
p3073
aVsamrod
p3074
aa(lp3075
Vsamak
p3076
aVsammak
p3077
aa(lp3078
Vsambar
p3079
aVsambhar
p3080
aa(lp3081
Vsamgye
p3082
aVgye
p3083
aVsamge
p3084
aa(lp3085
Vsamgye tang
p3086
aVsamgyetang
p3087
aa(lp3088
Vsamosa
p3089
aVsamosas
p3090
aa(lp3091
Vsamunprai
p3092
aVsamun
p3093
aa(lp3094
Vsan lao
p3095
aVsanlao
p3096
aa(lp3097
Vsan pellegrino
p3098
aVsanpellegrino
p3099
aa(lp3100
Vsapp
p3101
aVsaab
p3102
aVsaap
p3103
aa(lp3104
Vsapparod
p3105
aVsupparod
p3106
aVsubparod
p3107
aVsapparot
p3108
aVsapproad
p3109
aVsapparoad
p3110
aa(lp3111
Vsarada
p3112
aVsalada
p3113
aa(lp3114
Vsardin
p3115
aVsadin
p3116
aa(lp3117
Vsarson
p3118
aVserson
p3119
aa(lp3120
Vsashimi
p3121
aVshashimi
p3122
aa(lp3123
Vsatsuma age
p3124
aVsatsumaage
p3125
aa(lp3126
Vsauteed
p3127
aVsaute
p3128
aa(lp3129
Vscaloppina
p3130
aVscaloppine
p3131
aa(lp3132
Vsea bass
p3133
aVseabass
p3134
aa(lp3135
Vsea bream
p3136
aVseabream
p3137
aa(lp3138
Vsea cucumber
p3139
aVseacucumber
p3140
aa(lp3141
Vsee
p3142
aVswe
p3143
aa(lp3144
Vseekh
p3145
aVsheekh
p3146
aVsheesh
p3147
aVshekh
p3148
aa(lp3149
Vselatan
p3150
aVselaten
p3151
aa(lp3152
Vsen
p3153
aVwonsen
p3154
aa(lp3155
Vsen lek
p3156
aVsenlek
p3157
aa(lp3158
Vseppia
p3159
aVseppie
p3160
aVseppla
p3161
aa(lp3162
Vsev
p3163
aVsav
p3164
aa(lp3165
Vsha cha
p3166
aVshacha
p3167
aa(lp3168
Vshabu shabu
p3169
aVshabushabu
p3170
aa(lp3171
Vshaka
p3172
aVshuka
p3173
aa(lp3174
Vshakahari
p3175
aVsakahari
p3176
aa(lp3177
Vshami
p3178
aVshammi
p3179
aa(lp3180
Vshao x
p3181
aVshaox
p3182
aa(lp3183
Vshara
p3184
aVskara
p3185
aa(lp3186
Vshark fin
p3187
aVsharkfin
p3188
aa(lp3189
Vshashlik
p3190
aVshaslik
p3191
aVsaslik
p3192
aa(lp3193
Vshawarma
p3194
aVsharwarma
p3195
aa(lp3196
Vshen
p3197
aVchen
p3198
aa(lp3199
Vshepard
p3200
aVsheppard
p3201
aa(lp3202
Vshepherd
p3203
aVsheperd
p3204
aVshepher
p3205
aa(lp3206
Vshime
p3207
aVshimesaba
p3208
aa(lp3209
Vshio yaki
p3210
aVshioyaki
p3211
aVshiokyaki
p3212
aVshioyakki
p3213
aa(lp3214
Vshirazy
p3215
aVshirazi
p3216
aa(lp3217
Vshitake
p3218
aVshittake
p3219
aa(lp3220
Vshoe string
p3221
aVshoestr
p3222
aVshoestring
p3223
aa(lp3224
Vshoga
p3225
aVsyoga
p3226
aVshouga
p3227
aVshowa
p3228
aa(lp3229
Vshogayaki
p3230
aVshiogayaki
p3231
aa(lp3232
Vshort plate
p3233
aVshortplate
p3234
aa(lp3235
Vshort rib
p3236
aVshortrib
p3237
aa(lp3238
Vsi chuan
p3239
aVsichuan
p3240
aa(lp3241
Vsi ew
p3242
aVsiew
p3243
aa(lp3244
Vsichaun
p3245
aVsichun
p3246
aa(lp3247
Vside winder
p3248
aVsidewinder
p3249
aa(lp3250
Vsigara
p3251
aVsigora
p3252
aa(lp3253
Vsik
p3254
aVshik
p3255
aa(lp3256
Vsikhye
p3257
aVhye
p3258
aa(lp3259
Vsilver fern
p3260
aVsilverfern
p3261
aa(lp3262
Vsimla
p3263
aVshimla
p3264
aa(lp3265
Vsin
p3266
aVsinchoo
p3267
aa(lp3268
Vsio
p3269
aVsioh
p3270
aa(lp3271
Vsiput
p3272
aVspiput
p3273
aa(lp3274
Vsirlion
p3275
aVstirlion
p3276
aa(lp3277
Vsirloin
p3278
aVsirlon
p3279
aa(lp3280
Vskuttle butt
p3281
aVskuttlebutt
p3282
aa(lp3283
Vslice
p3284
aVsliced
p3285
aa(lp3286
Vsnow pear
p3287
aVsnowpear
p3288
aa(lp3289
Vsoft shell
p3290
aVsoftshell
p3291
aa(lp3292
Vsol
p3293
aVinsolia
p3294
aa(lp3295
Vsom tam
p3296
aVsomtam
p3297
aa(lp3298
Vsooki
p3299
aVsookii
p3300
aa(lp3301
Vsoon dubu
p3302
aVsoondubu
p3303
aa(lp3304
Vsopa de
p3305
aVsapade
p3306
aVsopade
p3307
aa(lp3308
Vsotto
p3309
aVscotto
p3310
aa(lp3311
Vsouman
p3312
aVsoman
p3313
aa(lp3314
Vsoursop
p3315
aVsoursoup
p3316
aa(lp3317
Vsouth east
p3318
aVsoutheast
p3319
aa(lp3320
Vsoy
p3321
aVsoya
p3322
aa(lp3323
Vspare
p3324
aVspar
p3325
aa(lp3326
Vspare rib
p3327
aVsparerib
p3328
aa(lp3329
Vspark
p3330
aVsparking
p3331
aa(lp3332
Vspeck
p3333
aVspeak
p3334
aa(lp3335
Vspinaci
p3336
aVspinachi
p3337
aa(lp3338
Vsprite
p3339
aVspite
p3340
aa(lp3341
Vsptzle
p3342
aVspatzle
p3343
aa(lp3344
Vsque
p3345
aVsoue
p3346
aa(lp3347
Vstagioni
p3348
aVstaggioni
p3349
aVsagioni
p3350
aa(lp3351
Vstamina
p3352
aVsutamina
p3353
aa(lp3354
Vsteam
p3355
aVsteamed
p3356
aa(lp3357
Vstiffe
p3358
aVstiffie
p3359
aa(lp3360
Vstill water
p3361
aVstillwater
p3362
aa(lp3363
Vstin
p3364
aVeastin
p3365
aa(lp3366
Vstinky
p3367
aVstink
p3368
aa(lp3369
Vstone pot
p3370
aVstonepot
p3371
aa(lp3372
Vstring bean
p3373
aVstringbean
p3374
aa(lp3375
Vsu
p3376
aVsui
p3377
aa(lp3378
Vsuay
p3379
aVsuai
p3380
aa(lp3381
Vsugar cane
p3382
aVsugarcane
p3383
aa(lp3384
Vsugata
p3385
aVsugatayaki
p3386
aVsugita
p3387
aa(lp3388
Vsukhewali
p3389
aVsukhew
p3390
aa(lp3391
Vsuki yaki
p3392
aVsukiyaki
p3393
aa(lp3394
Vsunny side
p3395
aVsunnyside
p3396
aa(lp3397
Vsuper seed
p3398
aVsuperseed
p3399
aa(lp3400
Vsuperieur
p3401
aVsuprieur
p3402
aa(lp3403
Vsuppl
p3404
aVsuppli
p3405
aa(lp3406
Vsurf
p3407
aVturf
p3408
aa(lp3409
Vsurfboard
p3410
aVsurftboard
p3411
aa(lp3412
Vsurume ika
p3413
aVsurumeika
p3414
aa(lp3415
Vsze chuan
p3416
aVszechuan
p3417
aa(lp3418
Vta
p3419
aVkata
p3420
aa(lp3421
Vta krai
p3422
aVtakrai
p3423
aa(lp3424
Vtabbouleh
p3425
aVtabboulah
p3426
aa(lp3427
Vtabouleh
p3428
aVtaboulleh
p3429
aVtaboulih
p3430
aa(lp3431
Vtac
p3432
aVtic
p3433
aa(lp3434
Vtadka
p3435
aVtarka
p3436
aVthadka
p3437
aa(lp3438
Vtaglialioni
p3439
aVtagilialioni
p3440
aa(lp3441
Vtagliata
p3442
aVtagliato
p3443
aa(lp3444
Vtaiwan
p3445
aVtaiwanese
p3446
aa(lp3447
Vtak
p3448
aVtaak
p3449
aVtaek
p3450
aa(lp3451
Vtaka
p3452
aVtakasago
p3453
aa(lp3454
Vtakiomi
p3455
aVomi
p3456
aa(lp3457
Vtako yaki
p3458
aVtakoyaki
p3459
aa(lp3460
Vtam
p3461
aVdam
p3462
aVtdam
p3463
aa(lp3464
Vtama
p3465
aVtatami
p3466
aVam
p3467
aa(lp3468
Vtamatar
p3469
aVtamater
p3470
aa(lp3471
Vtamerind
p3472
aVtamerine
p3473
aa(lp3474
Vtan
p3475
aVpaitan
p3476
aa(lp3477
Vtan tan
p3478
aVtantan
p3479
aa(lp3480
Vtandoori
p3481
aVtandoor
p3482
aa(lp3483
Vtang hoon
p3484
aVtanghoon
p3485
aa(lp3486
Vtanqueray
p3487
aVtangueray
p3488
aa(lp3489
Vtao hu
p3490
aVtaohu
p3491
aa(lp3492
Vtao pok
p3493
aVtaopok
p3494
aa(lp3495
Vtaouk
p3496
aVtawouk
p3497
aVtawook
p3498
aa(lp3499
Vtappuri
p3500
aVapp
p3501
aa(lp3502
Vtar tar
p3503
aVtartar
p3504
aVtartare
p3505
aVtartart
p3506
aVtatar
p3507
aa(lp3508
Vtartine
p3509
aVrotie
p3510
aVrti
p3511
aVrtie
p3512
aa(lp3513
Vtartufo
p3514
aVtarufo
p3515
aa(lp3516
Vtasca
p3517
aVtascante
p3518
aa(lp3519
Vtater
p3520
aVtarter
p3521
aVtatter
p3522
aa(lp3523
Vtatsumigura
p3524
aVtatsumugura
p3525
aa(lp3526
Vtau fu
p3527
aVtaufu
p3528
aa(lp3529
Vtau hu
p3530
aVtahu
p3531
aVtauhu
p3532
aa(lp3533
Vtau kee
p3534
aVtaukee
p3535
aa(lp3536
Vtau kwa
p3537
aVtaukwa
p3538
aa(lp3539
Vtau pok
p3540
aVtaupok
p3541
aa(lp3542
Vtauce
p3543
aVtaucu
p3544
aa(lp3545
Vtaugeh
p3546
aVtauge
p3547
aa(lp3548
Vte
p3549
aVhite
p3550
aa(lp3551
Vteh
p3552
aVteeh
p3553
aa(lp3554
Vteler
p3555
aVteller
p3556
aa(lp3557
Vtempura
p3558
aVtenpura
p3559
aa(lp3560
Vtempura moriawase
p3561
aVtempuramoriawase
p3562
aa(lp3563
Vten don
p3564
aVtendon
p3565
aa(lp3566
Vtenshin han
p3567
aVtenshinhan
p3568
aa(lp3569
Vteo
p3570
aVteoe
p3571
aa(lp3572
Vteo chew
p3573
aVteochew
p3574
aa(lp3575
Vteochaw
p3576
aVteochow
p3577
aVteocheow
p3578
aa(lp3579
Vteow chew
p3580
aVteowchew
p3581
aa(lp3582
Vtepong
p3583
aVtepung
p3584
aa(lp3585
Vtex
p3586
aVmex
p3587
aa(lp3588
Vthod
p3589
aVphod
p3590
aa(lp3591
Vthoma
p3592
aVthomas
p3593
aa(lp3594
Vthosai
p3595
aVdosa
p3596
aVdosai
p3597
aVtosai
p3598
aa(lp3599
Vthringer
p3600
aVthuringer
p3601
aa(lp3602
Vtht
p3603
aVhp
p3604
aVthp
p3605
aa(lp3606
Vti
p3607
aVtiu
p3608
aVtieu
p3609
aa(lp3610
Vtien
p3611
aVtientsin
p3612
aa(lp3613
Vtiew
p3614
aVtiow
p3615
aa(lp3616
Vtiga rasa
p3617
aVtigarasa
p3618
aa(lp3619
Vtiganite
p3620
aVtiganit
p3621
aa(lp3622
Vtikka
p3623
aVtikkas
p3624
aVtika
p3625
aVtikaa
p3626
aa(lp3627
Vting zai
p3628
aVtingzai
p3629
aa(lp3630
Vtitek
p3631
aVtitik
p3632
aa(lp3633
Vtm
p3634
aVthm
p3635
aa(lp3636
Vtng
p3637
aVfng
p3638
aa(lp3639
Vtoastie
p3640
aVtoastle
p3641
aVtoa
p3642
aa(lp3643
Vtod
p3644
aVtord
p3645
aVsod
p3646
aVsord
p3647
aa(lp3648
Vtoey
p3649
aVhoey
p3650
aVtoei
p3651
aVtuey
p3652
aa(lp3653
Vtok
p3654
aVtuk
p3655
aa(lp3656
Vtokujyou
p3657
aVjyo
p3658
aVjyou
p3659
aa(lp3660
Vtokumori
p3661
aVtoku
p3662
aa(lp3663
Vtom yam
p3664
aVtomyam
p3665
aa(lp3666
Vtom yum
p3667
aVtomyum
p3668
aa(lp3669
Vtoo
p3670
aVgoo
p3671
aa(lp3672
Vtop shell
p3673
aVtopshell
p3674
aa(lp3675
Vtori karaage
p3676
aVtorikaraage
p3677
aa(lp3678
Vtori katsu
p3679
aVtorikatsu
p3680
aa(lp3681
Vtori soboro
p3682
aVtorisoboro
p3683
aa(lp3684
Vtortilla chip
p3685
aVtortillachip
p3686
aa(lp3687
Vtot
p3688
aVtotchos
p3689
aVtott
p3690
aa(lp3691
Vtou fu
p3692
aVtofu
p3693
aVtoufu
p3694
aa(lp3695
Vtriacca
p3696
aVtriaacca
p3697
aa(lp3698
Vtrip
p3699
aVtripp
p3700
aa(lp3701
Vtrippin
p3702
aVtripplin
p3703
aa(lp3704
Vtrofie
p3705
aVtrofiette
p3706
aa(lp3707
Vtroooper
p3708
aVtrooper
p3709
aa(lp3710
Vtropicale
p3711
aVtropica
p3712
aa(lp3713
Vtrotter
p3714
aVtroter
p3715
aa(lp3716
Vtruffle
p3717
aVtruffl
p3718
aa(lp3719
Vtsumami
p3720
aVtsunami
p3721
aa(lp3722
Vtua
p3723
aVthua
p3724
aa(lp3725
Vtufo
p3726
aVtulfo
p3727
aa(lp3728
Vtung hoon
p3729
aVtunghoon
p3730
aa(lp3731
Vturmeric
p3732
aVtumeric
p3733
aa(lp3734
Vtutti
p3735
aVtutty
p3736
aa(lp3737
Vty
p3738
aVry
p3739
aa(lp3740
Vuar
p3741
aVcar
p3742
aa(lp3743
Vum
p3744
aVumbab
p3745
aa(lp3746
Vumamu
p3747
aVumanu
p3748
aa(lp3749
Vun
p3750
aVfungo
p3751
aa(lp3752
Vuna kyu
p3753
aVunakyu
p3754
aa(lp3755
Vuna tama
p3756
aVunatama
p3757
aa(lp3758
Vuthappam
p3759
aVuttapam
p3760
aVuttappam
p3761
aVutthappam
p3762
aa(lp3763
Vvadai
p3764
aVvada
p3765
aVwada
p3766
aVadai
p3767
aa(lp3768
Vvale
p3769
aVwale
p3770
aa(lp3771
Vvalencia
p3772
aVvalenciana
p3773
aa(lp3774
Vvalpolicella
p3775
aVvalpolicello
p3776
aa(lp3777
Vvavasour
p3778
aVvavasor
p3779
aa(lp3780
Vvelout
p3781
aVveloute
p3782
aa(lp3783
Vverde
p3784
aVverd
p3785
aa(lp3786
Vverdejo
p3787
aVverdeja
p3788
aa(lp3789
Vverduce
p3790
aVverdurce
p3791
aa(lp3792
Vvermicelli
p3793
aVvermincelli
p3794
aa(lp3795
Vvieille
p3796
aVvielle
p3797
aa(lp3798
Vvigne
p3799
aVvign
p3800
aa(lp3801
Vwahn
p3802
aVwahin
p3803
aa(lp3804
Vwan
p3805
aVwhan
p3806
aa(lp3807
Vwan tan
p3808
aVwantan
p3809
aa(lp3810
Vwang
p3811
aVwong
p3812
aa(lp3813
Vwanton
p3814
aVwonton
p3815
aa(lp3816
Vwarak
p3817
aVwarek
p3818
aa(lp3819
Vwat
p3820
aVwau
p3821
aa(lp3822
Vwater chestnut
p3823
aVwaterchestnut
p3824
aa(lp3825
Vweek
p3826
aVweekend
p3827
aa(lp3828
Vwestmalle
p3829
aVwesrmalle
p3830
aVmalle
p3831
aVmelle
p3832
aa(lp3833
Vwh
p3834
aVwho
p3835
aa(lp3836
Vwhite bait
p3837
aVwhitebait
p3838
aa(lp3839
Vwilt
p3840
aVwilted
p3841
aa(lp3842
Vwinter melon
p3843
aVwintermelon
p3844
aa(lp3845
Vwire
p3846
aVhopwired
p3847
aa(lp3848
Vwolfberrie
p3849
aVwolfberri
p3850
aa(lp3851
Vwood
p3852
aVwoody
p3853
aa(lp3854
Vwoon
p3855
aVvoon
p3856
aa(lp3857
Vwoon sen
p3858
aVwoonsen
p3859
aa(lp3860
Vwu xiang
p3861
aVwuxiang
p3862
aa(lp3863
Vxao
p3864
aVxa
p3865
aa(lp3866
Vxiao bai
p3867
aVxiaobai
p3868
aa(lp3869
Vxin
p3870
aVsim
p3871
aVjiu
p3872
aVxiu
p3873
aVxia
p3874
aVxim
p3875
aa(lp3876
Vxing zhou
p3877
aVxingzhou
p3878
aa(lp3879
Vyagon
p3880
aVyangon
p3881
aa(lp3882
Vyai
p3883
aVhat
p3884
aVyat
p3885
aVyad
p3886
aa(lp3887
Vyaki
p3888
aVbatayaki
p3889
aa(lp3890
Vyaki meshi
p3891
aVyakimeshi
p3892
aa(lp3893
Vyang chow
p3894
aVyangchow
p3895
aa(lp3896
Vyang nyeom
p3897
aVyangnyeom
p3898
aVyangnyeon
p3899
aVsoyangnyeom
p3900
aa(lp3901
Vyang nyum
p3902
aVyangnyum
p3903
aVyangnoum
p3904
aa(lp3905
Vyang zhou
p3906
aVyangzhou
p3907
aa(lp3908
Vyellow tail
p3909
aVyellowtail
p3910
aa(lp3911
Vyeng
p3912
aVyeung
p3913
aa(lp3914
Vyogurt
p3915
aVyoghurt
p3916
aa(lp3917
Vyoshikiri
p3918
aVyashikiri
p3919
aa(lp3920
Vyu sheng
p3921
aVyusheng
p3922
aa(lp3923
Vyu xiang
p3924
aVyuxiang
p3925
aa(lp3926
Vyuja
p3927
aVyuji
p3928
aa(lp3929
Vyum
p3930
aVyom
p3931
aa(lp3932
Vzha jiang
p3933
aVzhajiang
p3934
aa(lp3935
Vzhen
p3936
aVzhe
p3937
aa(lp3938
Vzhen jiang
p3939
aVzhenjiang
p3940
aa(lp3941
Vzhou
p3942
aVchow
p3943
aVchou
p3944
aa(lp3945
Vzhu
p3946
aVzhuang
p3947
aa(lp3948
Vzuppa
p3949
aVzuppe
p3950
aa(lp3951
Vzuppetta
p3952
aVzupetta
p3953
aa.